(lp1
(lp2
(ibuftoken
BufToken
p3
(dp4
S'index'
p5
I0
sS'word'
p6
S'Chapter'
p7
sS'ne'
p8
S'O'
sS'pos'
p9
S'NN'
p10
sS'lemma'
p11
S'chapter'
p12
sS'nodes'
p13
Nsba(ibuftoken
BufToken
p14
(dp15
g5
I1
sg6
S'1'
sg8
S'NUMBER'
p16
sg9
S'CD'
p17
sg11
S'1'
sg13
Nsba(ibuftoken
BufToken
p18
(dp19
g5
I2
sg6
S'.'
sg8
S'O'
sg9
S'.'
sg11
S'.'
sg13
Nsbaa(lp20
(ibuftoken
BufToken
p21
(dp22
g5
I0
sg6
S'Once'
p23
sg8
S'DATE'
p24
sg9
S'RB'
p25
sg11
S'once'
p26
sg13
Nsba(ibuftoken
BufToken
p27
(dp28
g5
I1
sg6
S'when'
p29
sg8
S'O'
sg9
S'WRB'
p30
sg11
S'when'
p31
sg13
Nsba(ibuftoken
BufToken
p32
(dp33
g5
I2
sg6
S'I'
sg8
S'O'
sg9
S'PRP'
p34
sg11
S'I'
sg13
Nsba(ibuftoken
BufToken
p35
(dp36
g5
I3
sg6
S'was'
p37
sg8
S'O'
sg9
S'VBD'
p38
sg11
S'be'
p39
sg13
Nsba(ibuftoken
BufToken
p40
(dp41
g5
I4
sg6
S'six'
p42
sg8
S'DURATION'
p43
sg9
S'CD'
p44
sg11
S'six'
p45
sg13
Nsba(ibuftoken
BufToken
p46
(dp47
g5
I5
sg6
S'years'
p48
sg8
S'DURATION'
p49
sg9
S'NNS'
p50
sg11
S'year'
p51
sg13
Nsba(ibuftoken
BufToken
p52
(dp53
g5
I6
sg6
S'old'
p54
sg8
S'DURATION'
p55
sg9
S'JJ'
p56
sg11
S'old'
p57
sg13
Nsba(ibuftoken
BufToken
p58
(dp59
g5
I7
sg6
S'I'
sg8
S'O'
sg9
S'PRP'
p60
sg11
S'I'
sg13
Nsba(ibuftoken
BufToken
p61
(dp62
g5
I8
sg6
S'saw'
p63
sg8
S'O'
sg9
S'VBD'
p64
sg11
S'see'
p65
sg13
Nsba(ibuftoken
BufToken
p66
(dp67
g5
I9
sg6
S'a'
sg8
S'O'
sg9
S'DT'
p68
sg11
S'a'
sg13
Nsba(ibuftoken
BufToken
p69
(dp70
g5
I10
sg6
S'magnificent'
p71
sg8
S'O'
sg9
S'JJ'
p72
sg11
S'magnificent'
p73
sg13
Nsba(ibuftoken
BufToken
p74
(dp75
g5
I11
sg6
S'picture'
p76
sg8
S'O'
sg9
S'NN'
p77
sg11
S'picture'
p78
sg13
Nsba(ibuftoken
BufToken
p79
(dp80
g5
I12
sg6
S'in'
p81
sg8
S'O'
sg9
S'IN'
p82
sg11
S'in'
p83
sg13
Nsba(ibuftoken
BufToken
p84
(dp85
g5
I13
sg6
S'a'
sg8
S'O'
sg9
S'DT'
p86
sg11
S'a'
sg13
Nsba(ibuftoken
BufToken
p87
(dp88
g5
I14
sg6
S'book'
p89
sg8
S'O'
sg9
S'NN'
p90
sg11
S'book'
p91
sg13
Nsba(ibuftoken
BufToken
p92
(dp93
g5
I15
sg6
S','
sg8
S'O'
sg9
S','
sg11
S','
sg13
Nsba(ibuftoken
BufToken
p94
(dp95
g5
I16
sg6
S'called'
p96
sg8
S'O'
sg9
S'VBN'
p97
sg11
S'call'
p98
sg13
Nsba(ibuftoken
BufToken
p99
(dp100
g5
I17
sg6
S'True'
p101
sg8
S'O'
sg9
S'JJ'
p102
sg11
S'true'
p103
sg13
Nsba(ibuftoken
BufToken
p104
(dp105
g5
I18
sg6
S'Stories'
p106
sg8
S'O'
sg9
S'NNP'
p107
sg11
S'Stories'
p108
sg13
Nsba(ibuftoken
BufToken
p109
(dp110
g5
I19
sg6
S'from'
p111
sg8
S'O'
sg9
S'IN'
p112
sg11
S'from'
p113
sg13
Nsba(ibuftoken
BufToken
p114
(dp115
g5
I20
sg6
S'Nature'
p116
sg8
S'O'
sg9
S'NNP'
p117
sg11
S'Nature'
p118
sg13
Nsba(ibuftoken
BufToken
p119
(dp120
g5
I21
sg6
S','
sg8
S'O'
sg9
S','
sg11
S','
sg13
Nsba(ibuftoken
BufToken
p121
(dp122
g5
I22
sg6
S'about'
p123
sg8
S'O'
sg9
S'IN'
p124
sg11
S'about'
p125
sg13
Nsba(ibuftoken
BufToken
p126
(dp127
g5
I23
sg6
S'the'
p128
sg8
S'O'
sg9
S'DT'
p129
sg11
S'the'
p130
sg13
Nsba(ibuftoken
BufToken
p131
(dp132
g5
I24
sg6
S'primeval'
p133
sg8
S'O'
sg9
S'JJ'
p134
sg11
S'primeval'
p135
sg13
Nsba(ibuftoken
BufToken
p136
(dp137
g5
I25
sg6
S'forest'
p138
sg8
S'O'
sg9
S'NN'
p139
sg11
S'forest'
p140
sg13
Nsba(ibuftoken
BufToken
p141
(dp142
g5
I26
sg6
S'.'
sg8
S'O'
sg9
S'.'
sg11
S'.'
sg13
Nsbaa(lp143
(ibuftoken
BufToken
p144
(dp145
g5
I0
sg6
S'It'
p146
sg8
S'O'
sg9
S'PRP'
p147
sg11
S'it'
p148
sg13
Nsba(ibuftoken
BufToken
p149
(dp150
g5
I1
sg6
S'was'
p151
sg8
S'O'
sg9
S'VBD'
p152
sg11
S'be'
p153
sg13
Nsba(ibuftoken
BufToken
p154
(dp155
g5
I2
sg6
S'a'
sg8
S'O'
sg9
S'DT'
p156
sg11
S'a'
sg13
Nsba(ibuftoken
BufToken
p157
(dp158
g5
I3
sg6
S'picture'
p159
sg8
S'O'
sg9
S'NN'
p160
sg11
S'picture'
p161
sg13
Nsba(ibuftoken
BufToken
p162
(dp163
g5
I4
sg6
S'of'
p164
sg8
S'O'
sg9
S'IN'
p165
sg11
S'of'
p166
sg13
Nsba(ibuftoken
BufToken
p167
(dp168
g5
I5
sg6
S'a'
sg8
S'O'
sg9
S'DT'
p169
sg11
S'a'
sg13
Nsba(ibuftoken
BufToken
p170
(dp171
g5
I6
sg6
S'boa'
p172
sg8
S'O'
sg9
S'NN'
p173
sg11
S'boa'
p174
sg13
Nsba(ibuftoken
BufToken
p175
(dp176
g5
I7
sg6
S'constrictor'
p177
sg8
S'O'
sg9
S'NN'
p178
sg11
S'constrictor'
p179
sg13
Nsba(ibuftoken
BufToken
p180
(dp181
g5
I8
sg6
S'in'
p182
sg8
S'O'
sg9
S'IN'
p183
sg11
S'in'
p184
sg13
Nsba(ibuftoken
BufToken
p185
(dp186
g5
I9
sg6
S'the'
p187
sg8
S'O'
sg9
S'DT'
p188
sg11
S'the'
p189
sg13
Nsba(ibuftoken
BufToken
p190
(dp191
g5
I10
sg6
S'act'
p192
sg8
S'O'
sg9
S'NN'
p193
sg11
S'act'
p194
sg13
Nsba(ibuftoken
BufToken
p195
(dp196
g5
I11
sg6
S'of'
p197
sg8
S'O'
sg9
S'IN'
p198
sg11
S'of'
p199
sg13
Nsba(ibuftoken
BufToken
p200
(dp201
g5
I12
sg6
S'swallowing'
p202
sg8
S'O'
sg9
S'VBG'
p203
sg11
S'swallow'
p204
sg13
Nsba(ibuftoken
BufToken
p205
(dp206
g5
I13
sg6
S'an'
p207
sg8
S'O'
sg9
S'DT'
p208
sg11
S'a'
sg13
Nsba(ibuftoken
BufToken
p209
(dp210
g5
I14
sg6
S'animal'
p211
sg8
S'O'
sg9
S'NN'
p212
sg11
S'animal'
p213
sg13
Nsba(ibuftoken
BufToken
p214
(dp215
g5
I15
sg6
S'.'
sg8
S'O'
sg9
S'.'
sg11
S'.'
sg13
Nsbaa(lp216
(ibuftoken
BufToken
p217
(dp218
g5
I0
sg6
S'Here'
p219
sg8
S'O'
sg9
S'RB'
p220
sg11
S'here'
p221
sg13
Nsba(ibuftoken
BufToken
p222
(dp223
g5
I1
sg6
S'is'
p224
sg8
S'O'
sg9
S'VBZ'
p225
sg11
S'be'
p226
sg13
Nsba(ibuftoken
BufToken
p227
(dp228
g5
I2
sg6
S'a'
sg8
S'O'
sg9
S'DT'
p229
sg11
S'a'
sg13
Nsba(ibuftoken
BufToken
p230
(dp231
g5
I3
sg6
S'copy'
p232
sg8
S'O'
sg9
S'NN'
p233
sg11
S'copy'
p234
sg13
Nsba(ibuftoken
BufToken
p235
(dp236
g5
I4
sg6
S'of'
p237
sg8
S'O'
sg9
S'IN'
p238
sg11
S'of'
p239
sg13
Nsba(ibuftoken
BufToken
p240
(dp241
g5
I5
sg6
S'the'
p242
sg8
S'O'
sg9
S'DT'
p243
sg11
S'the'
p244
sg13
Nsba(ibuftoken
BufToken
p245
(dp246
g5
I6
sg6
S'drawing'
p247
sg8
S'O'
sg9
S'NN'
p248
sg11
S'drawing'
p249
sg13
Nsba(ibuftoken
BufToken
p250
(dp251
g5
I7
sg6
S'.'
sg8
S'O'
sg9
S'.'
sg11
S'.'
sg13
Nsbaa(lp252
(ibuftoken
BufToken
p253
(dp254
g5
I0
sg6
S'In'
p255
sg8
S'O'
sg9
S'IN'
p256
sg11
S'in'
p257
sg13
Nsba(ibuftoken
BufToken
p258
(dp259
g5
I1
sg6
S'the'
p260
sg8
S'O'
sg9
S'DT'
p261
sg11
S'the'
p262
sg13
Nsba(ibuftoken
BufToken
p263
(dp264
g5
I2
sg6
S'book'
p265
sg8
S'O'
sg9
S'NN'
p266
sg11
S'book'
p267
sg13
Nsba(ibuftoken
BufToken
p268
(dp269
g5
I3
sg6
S'it'
p270
sg8
S'O'
sg9
S'PRP'
p271
sg11
S'it'
p272
sg13
Nsba(ibuftoken
BufToken
p273
(dp274
g5
I4
sg6
S'said'
p275
sg8
S'O'
sg9
S'VBD'
p276
sg11
S'say'
p277
sg13
Nsba(ibuftoken
BufToken
p278
(dp279
g5
I5
sg6
S':'
sg8
S'O'
sg9
S':'
sg11
S':'
sg13
Nsba(ibuftoken
BufToken
p280
(dp281
g5
I6
sg6
S'"'
sg8
S'O'
sg9
S'``'
p282
sg11
S'"'
sg13
Nsba(ibuftoken
BufToken
p283
(dp284
g5
I7
sg6
S'Boa'
p285
sg8
S'O'
sg9
S'NN'
p286
sg11
S'boa'
p287
sg13
Nsba(ibuftoken
BufToken
p288
(dp289
g5
I8
sg6
S'constrictors'
p290
sg8
S'O'
sg9
S'NNS'
p291
sg11
S'constrictor'
p292
sg13
Nsba(ibuftoken
BufToken
p293
(dp294
g5
I9
sg6
S'swallow'
p295
sg8
S'O'
sg9
S'VBP'
p296
sg11
S'swallow'
p297
sg13
Nsba(ibuftoken
BufToken
p298
(dp299
g5
I10
sg6
S'their'
p300
sg8
S'O'
sg9
S'PRP$'
p301
sg11
S'they'
p302
sg13
Nsba(ibuftoken
BufToken
p303
(dp304
g5
I11
sg6
S'prey'
p305
sg8
S'O'
sg9
S'NN'
p306
sg11
S'prey'
p307
sg13
Nsba(ibuftoken
BufToken
p308
(dp309
g5
I12
sg6
S'whole'
p310
sg8
S'O'
sg9
S'NN'
p311
sg11
S'whole'
p312
sg13
Nsba(ibuftoken
BufToken
p313
(dp314
g5
I13
sg6
S','
sg8
S'O'
sg9
S','
sg11
S','
sg13
Nsba(ibuftoken
BufToken
p315
(dp316
g5
I14
sg6
S'without'
p317
sg8
S'O'
sg9
S'IN'
p318
sg11
S'without'
p319
sg13
Nsba(ibuftoken
BufToken
p320
(dp321
g5
I15
sg6
S'chewing'
p322
sg8
S'O'
sg9
S'VBG'
p323
sg11
S'chew'
p324
sg13
Nsba(ibuftoken
BufToken
p325
(dp326
g5
I16
sg6
S'it'
p327
sg8
S'O'
sg9
S'PRP'
p328
sg11
S'it'
p329
sg13
Nsba(ibuftoken
BufToken
p330
(dp331
g5
I17
sg6
S'.'
sg8
S'O'
sg9
S'.'
sg11
S'.'
sg13
Nsbaa(lp332
(ibuftoken
BufToken
p333
(dp334
g5
I0
sg6
S'After'
p335
sg8
S'O'
sg9
S'IN'
p336
sg11
S'after'
p337
sg13
Nsba(ibuftoken
BufToken
p338
(dp339
g5
I1
sg6
S'that'
p340
sg8
S'O'
sg9
S'IN'
p341
sg11
S'that'
p342
sg13
Nsba(ibuftoken
BufToken
p343
(dp344
g5
I2
sg6
S'they'
p345
sg8
S'O'
sg9
S'PRP'
p346
sg11
S'they'
p347
sg13
Nsba(ibuftoken
BufToken
p348
(dp349
g5
I3
sg6
S'are'
p350
sg8
S'O'
sg9
S'VBP'
p351
sg11
S'be'
p352
sg13
Nsba(ibuftoken
BufToken
p353
(dp354
g5
I4
sg6
S'not'
p355
sg8
S'O'
sg9
S'RB'
p356
sg11
S'not'
p357
sg13
Nsba(ibuftoken
BufToken
p358
(dp359
g5
I5
sg6
S'able'
p360
sg8
S'O'
sg9
S'JJ'
p361
sg11
S'able'
p362
sg13
Nsba(ibuftoken
BufToken
p363
(dp364
g5
I6
sg6
S'to'
p365
sg8
S'O'
sg9
S'TO'
p366
sg11
S'to'
p367
sg13
Nsba(ibuftoken
BufToken
p368
(dp369
g5
I7
sg6
S'move'
p370
sg8
S'O'
sg9
S'VB'
p371
sg11
S'move'
p372
sg13
Nsba(ibuftoken
BufToken
p373
(dp374
g5
I8
sg6
S','
sg8
S'O'
sg9
S','
sg11
S','
sg13
Nsba(ibuftoken
BufToken
p375
(dp376
g5
I9
sg6
S'and'
p377
sg8
S'O'
sg9
S'CC'
p378
sg11
S'and'
p379
sg13
Nsba(ibuftoken
BufToken
p380
(dp381
g5
I10
sg6
S'they'
p382
sg8
S'O'
sg9
S'PRP'
p383
sg11
S'they'
p384
sg13
Nsba(ibuftoken
BufToken
p385
(dp386
g5
I11
sg6
S'sleep'
p387
sg8
S'O'
sg9
S'VBP'
p388
sg11
S'sleep'
p389
sg13
Nsba(ibuftoken
BufToken
p390
(dp391
g5
I12
sg6
S'through'
p392
sg8
S'O'
sg9
S'IN'
p393
sg11
S'through'
p394
sg13
Nsba(ibuftoken
BufToken
p395
(dp396
g5
I13
sg6
S'the'
p397
sg8
S'DURATION'
p398
sg9
S'DT'
p399
sg11
S'the'
p400
sg13
Nsba(ibuftoken
BufToken
p401
(dp402
g5
I14
sg6
S'six'
p403
sg8
S'DURATION'
p404
sg9
S'CD'
p405
sg11
S'six'
p406
sg13
Nsba(ibuftoken
BufToken
p407
(dp408
g5
I15
sg6
S'months'
p409
sg8
S'DURATION'
p410
sg9
S'NNS'
p411
sg11
S'month'
p412
sg13
Nsba(ibuftoken
BufToken
p413
(dp414
g5
I16
sg6
S'that'
p415
sg8
S'O'
sg9
S'IN'
p416
sg11
S'that'
p417
sg13
Nsba(ibuftoken
BufToken
p418
(dp419
g5
I17
sg6
S'they'
p420
sg8
S'O'
sg9
S'PRP'
p421
sg11
S'they'
p422
sg13
Nsba(ibuftoken
BufToken
p423
(dp424
g5
I18
sg6
S'need'
p425
sg8
S'O'
sg9
S'VBP'
p426
sg11
S'need'
p427
sg13
Nsba(ibuftoken
BufToken
p428
(dp429
g5
I19
sg6
S'for'
p430
sg8
S'O'
sg9
S'IN'
p431
sg11
S'for'
p432
sg13
Nsba(ibuftoken
BufToken
p433
(dp434
g5
I20
sg6
S'digestion'
p435
sg8
S'O'
sg9
S'NN'
p436
sg11
S'digestion'
p437
sg13
Nsba(ibuftoken
BufToken
p438
(dp439
g5
I21
sg6
S'.'
sg8
S'O'
sg9
S'.'
sg11
S'.'
sg13
Nsba(ibuftoken
BufToken
p440
(dp441
g5
I22
sg6
S'\xe2\x80\x9d'
p442
sg8
S'O'
sg9
S'SYM'
p443
sg11
S'\xe2\x80\x9d'
p444
sg13
Nsbaa(lp445
(ibuftoken
BufToken
p446
(dp447
g5
I0
sg6
S'I'
sg8
S'O'
sg9
S'PRP'
p448
sg11
S'I'
sg13
Nsba(ibuftoken
BufToken
p449
(dp450
g5
I1
sg6
S'pondered'
p451
sg8
S'O'
sg9
S'VBD'
p452
sg11
S'ponder'
p453
sg13
Nsba(ibuftoken
BufToken
p454
(dp455
g5
I2
sg6
S'deeply'
p456
sg8
S'O'
sg9
S'RB'
p457
sg11
S'deeply'
p458
sg13
Nsba(ibuftoken
BufToken
p459
(dp460
g5
I3
sg6
S','
sg8
S'O'
sg9
S','
sg11
S','
sg13
Nsba(ibuftoken
BufToken
p461
(dp462
g5
I4
sg6
S'then'
p463
sg8
S'O'
sg9
S'RB'
p464
sg11
S'then'
p465
sg13
Nsba(ibuftoken
BufToken
p466
(dp467
g5
I5
sg6
S','
sg8
S'O'
sg9
S','
sg11
S','
sg13
Nsba(ibuftoken
BufToken
p468
(dp469
g5
I6
sg6
S'over'
p470
sg8
S'O'
sg9
S'IN'
p471
sg11
S'over'
p472
sg13
Nsba(ibuftoken
BufToken
p473
(dp474
g5
I7
sg6
S'the'
p475
sg8
S'O'
sg9
S'DT'
p476
sg11
S'the'
p477
sg13
Nsba(ibuftoken
BufToken
p478
(dp479
g5
I8
sg6
S'adventures'
p480
sg8
S'O'
sg9
S'NNS'
p481
sg11
S'adventure'
p482
sg13
Nsba(ibuftoken
BufToken
p483
(dp484
g5
I9
sg6
S'of'
p485
sg8
S'O'
sg9
S'IN'
p486
sg11
S'of'
p487
sg13
Nsba(ibuftoken
BufToken
p488
(dp489
g5
I10
sg6
S'the'
p490
sg8
S'O'
sg9
S'DT'
p491
sg11
S'the'
p492
sg13
Nsba(ibuftoken
BufToken
p493
(dp494
g5
I11
sg6
S'jungle'
p495
sg8
S'O'
sg9
S'NN'
p496
sg11
S'jungle'
p497
sg13
Nsba(ibuftoken
BufToken
p498
(dp499
g5
I12
sg6
S'.'
sg8
S'O'
sg9
S'.'
sg11
S'.'
sg13
Nsbaa(lp500
(ibuftoken
BufToken
p501
(dp502
g5
I0
sg6
S'And'
p503
sg8
S'O'
sg9
S'CC'
p504
sg11
S'and'
p505
sg13
Nsba(ibuftoken
BufToken
p506
(dp507
g5
I1
sg6
S'after'
p508
sg8
S'O'
sg9
S'IN'
p509
sg11
S'after'
p510
sg13
Nsba(ibuftoken
BufToken
p511
(dp512
g5
I2
sg6
S'some'
p513
sg8
S'O'
sg9
S'DT'
p514
sg11
S'some'
p515
sg13
Nsba(ibuftoken
BufToken
p516
(dp517
g5
I3
sg6
S'work'
p518
sg8
S'O'
sg9
S'NN'
p519
sg11
S'work'
p520
sg13
Nsba(ibuftoken
BufToken
p521
(dp522
g5
I4
sg6
S'with'
p523
sg8
S'O'
sg9
S'IN'
p524
sg11
S'with'
p525
sg13
Nsba(ibuftoken
BufToken
p526
(dp527
g5
I5
sg6
S'a'
sg8
S'O'
sg9
S'DT'
p528
sg11
S'a'
sg13
Nsba(ibuftoken
BufToken
p529
(dp530
g5
I6
sg6
S'colored'
p531
sg8
S'O'
sg9
S'VBN'
p532
sg11
S'color'
p533
sg13
Nsba(ibuftoken
BufToken
p534
(dp535
g5
I7
sg6
S'pencil'
p536
sg8
S'O'
sg9
S'NN'
p537
sg11
S'pencil'
p538
sg13
Nsba(ibuftoken
BufToken
p539
(dp540
g5
I8
sg6
S'I'
sg8
S'O'
sg9
S'PRP'
p541
sg11
S'I'
sg13
Nsba(ibuftoken
BufToken
p542
(dp543
g5
I9
sg6
S'succeeded'
p544
sg8
S'O'
sg9
S'VBD'
p545
sg11
S'succeed'
p546
sg13
Nsba(ibuftoken
BufToken
p547
(dp548
g5
I10
sg6
S'in'
p549
sg8
S'O'
sg9
S'IN'
p550
sg11
S'in'
p551
sg13
Nsba(ibuftoken
BufToken
p552
(dp553
g5
I11
sg6
S'making'
p554
sg8
S'O'
sg9
S'VBG'
p555
sg11
S'make'
p556
sg13
Nsba(ibuftoken
BufToken
p557
(dp558
g5
I12
sg6
S'my'
p559
sg8
S'O'
sg9
S'PRP$'
p560
sg11
S'my'
p561
sg13
Nsba(ibuftoken
BufToken
p562
(dp563
g5
I13
sg6
S'1'
sg8
S'ORDINAL'
p564
sg9
S'JJ'
p565
sg11
S'first'
p566
sg13
Nsba(ibuftoken
BufToken
p567
(dp568
g5
I14
sg6
S'drawing'
p569
sg8
S'O'
sg9
S'NN'
p570
sg11
S'drawing'
p571
sg13
Nsba(ibuftoken
BufToken
p572
(dp573
g5
I15
sg6
S'.'
sg8
S'O'
sg9
S'.'
sg11
S'.'
sg13
Nsbaa(lp574
(ibuftoken
BufToken
p575
(dp576
g5
I0
sg6
S'My'
p577
sg8
S'O'
sg9
S'PRP$'
p578
sg11
S'my'
p579
sg13
Nsba(ibuftoken
BufToken
p580
(dp581
g5
I1
sg6
S'Drawing'
p582
sg8
S'O'
sg9
S'NNP'
p583
sg11
S'Drawing'
p584
sg13
Nsba(ibuftoken
BufToken
p585
(dp586
g5
I2
sg6
S'Number'
p587
sg8
S'O'
sg9
S'NNP'
p588
sg11
S'Number'
p589
sg13
Nsba(ibuftoken
BufToken
p590
(dp591
g5
I3
sg6
S'1'
sg8
S'NUMBER'
p592
sg9
S'CD'
p593
sg11
S'One'
p594
sg13
Nsba(ibuftoken
BufToken
p595
(dp596
g5
I4
sg6
S'.'
sg8
S'O'
sg9
S'.'
sg11
S'.'
sg13
Nsbaa(lp597
(ibuftoken
BufToken
p598
(dp599
g5
I0
sg6
S'It'
p600
sg8
S'O'
sg9
S'PRP'
p601
sg11
S'it'
p602
sg13
Nsba(ibuftoken
BufToken
p603
(dp604
g5
I1
sg6
S'looked'
p605
sg8
S'O'
sg9
S'VBD'
p606
sg11
S'look'
p607
sg13
Nsba(ibuftoken
BufToken
p608
(dp609
g5
I2
sg6
S'like'
p610
sg8
S'O'
sg9
S'IN'
p611
sg11
S'like'
p612
sg13
Nsba(ibuftoken
BufToken
p613
(dp614
g5
I3
sg6
S'this'
p615
sg8
S'O'
sg9
S'DT'
p616
sg11
S'this'
p617
sg13
Nsba(ibuftoken
BufToken
p618
(dp619
g5
I4
sg6
S':'
sg8
S'O'
sg9
S':'
sg11
S':'
sg13
Nsba(ibuftoken
BufToken
p620
(dp621
g5
I5
sg6
S'I'
sg8
S'O'
sg9
S'PRP'
p622
sg11
S'I'
sg13
Nsba(ibuftoken
BufToken
p623
(dp624
g5
I6
sg6
S'showed'
p625
sg8
S'O'
sg9
S'VBD'
p626
sg11
S'show'
p627
sg13
Nsba(ibuftoken
BufToken
p628
(dp629
g5
I7
sg6
S'my'
p630
sg8
S'O'
sg9
S'PRP$'
p631
sg11
S'my'
p632
sg13
Nsba(ibuftoken
BufToken
p633
(dp634
g5
I8
sg6
S'masterpiece'
p635
sg8
S'O'
sg9
S'NN'
p636
sg11
S'masterpiece'
p637
sg13
Nsba(ibuftoken
BufToken
p638
(dp639
g5
I9
sg6
S'to'
p640
sg8
S'O'
sg9
S'TO'
p641
sg11
S'to'
p642
sg13
Nsba(ibuftoken
BufToken
p643
(dp644
g5
I10
sg6
S'the'
p645
sg8
S'O'
sg9
S'DT'
p646
sg11
S'the'
p647
sg13
Nsba(ibuftoken
BufToken
p648
(dp649
g5
I11
sg6
S'grown'
p650
sg8
S'O'
sg9
S'JJ'
p651
sg11
S'grown'
p652
sg13
Nsba(ibuftoken
BufToken
p653
(dp654
g5
I12
sg6
S'-'
sg8
S'O'
sg9
S':'
sg11
S'-'
sg13
Nsba(ibuftoken
BufToken
p655
(dp656
g5
I13
sg6
S'ups'
p657
sg8
S'O'
sg9
S'NNS'
p658
sg11
S'up'
p659
sg13
Nsba(ibuftoken
BufToken
p660
(dp661
g5
I14
sg6
S','
sg8
S'O'
sg9
S','
sg11
S','
sg13
Nsba(ibuftoken
BufToken
p662
(dp663
g5
I15
sg6
S'and'
p664
sg8
S'O'
sg9
S'CC'
p665
sg11
S'and'
p666
sg13
Nsba(ibuftoken
BufToken
p667
(dp668
g5
I16
sg6
S'asked'
p669
sg8
S'O'
sg9
S'VBD'
p670
sg11
S'ask'
p671
sg13
Nsba(ibuftoken
BufToken
p672
(dp673
g5
I17
sg6
S'them'
p674
sg8
S'O'
sg9
S'PRP'
p675
sg11
S'they'
p676
sg13
Nsba(ibuftoken
BufToken
p677
(dp678
g5
I18
sg6
S'whether'
p679
sg8
S'O'
sg9
S'IN'
p680
sg11
S'whether'
p681
sg13
Nsba(ibuftoken
BufToken
p682
(dp683
g5
I19
sg6
S'the'
p684
sg8
S'O'
sg9
S'DT'
p685
sg11
S'the'
p686
sg13
Nsba(ibuftoken
BufToken
p687
(dp688
g5
I20
sg6
S'drawing'
p689
sg8
S'O'
sg9
S'NN'
p690
sg11
S'drawing'
p691
sg13
Nsba(ibuftoken
BufToken
p692
(dp693
g5
I21
sg6
S'frightened'
p694
sg8
S'O'
sg9
S'VBD'
p695
sg11
S'frighten'
p696
sg13
Nsba(ibuftoken
BufToken
p697
(dp698
g5
I22
sg6
S'them'
p699
sg8
S'O'
sg9
S'PRP'
p700
sg11
S'they'
p701
sg13
Nsba(ibuftoken
BufToken
p702
(dp703
g5
I23
sg6
S'.'
sg8
S'O'
sg9
S'.'
sg11
S'.'
sg13
Nsbaa(lp704
(ibuftoken
BufToken
p705
(dp706
g5
I0
sg6
S'But'
p707
sg8
S'O'
sg9
S'CC'
p708
sg11
S'but'
p709
sg13
Nsba(ibuftoken
BufToken
p710
(dp711
g5
I1
sg6
S'they'
p712
sg8
S'O'
sg9
S'PRP'
p713
sg11
S'they'
p714
sg13
Nsba(ibuftoken
BufToken
p715
(dp716
g5
I2
sg6
S'answered'
p717
sg8
S'O'
sg9
S'VBD'
p718
sg11
S'answer'
p719
sg13
Nsba(ibuftoken
BufToken
p720
(dp721
g5
I3
sg6
S':'
sg8
S'O'
sg9
S':'
sg11
S':'
sg13
Nsba(ibuftoken
BufToken
p722
(dp723
g5
I4
sg6
S'"'
sg8
S'O'
sg9
S'``'
p724
sg11
S'"'
sg13
Nsba(ibuftoken
BufToken
p725
(dp726
g5
I5
sg6
S'Frighten'
p727
sg8
S'O'
sg9
S'VB'
p728
sg11
S'frighten'
p729
sg13
Nsba(ibuftoken
BufToken
p730
(dp731
g5
I6
sg6
S'?'
sg8
S'O'
sg9
S'.'
sg11
S'?'
sg13
Nsbaa(lp732
(ibuftoken
BufToken
p733
(dp734
g5
I0
sg6
S'Why'
p735
sg8
S'O'
sg9
S'WRB'
p736
sg11
S'why'
p737
sg13
Nsba(ibuftoken
BufToken
p738
(dp739
g5
I1
sg6
S'should'
p740
sg8
S'O'
sg9
S'MD'
p741
sg11
S'should'
p742
sg13
Nsba(ibuftoken
BufToken
p743
(dp744
g5
I2
sg6
S'any'
p745
sg8
S'O'
sg9
S'DT'
p746
sg11
S'any'
p747
sg13
Nsba(ibuftoken
BufToken
p748
(dp749
g5
I3
sg6
S'1'
sg8
S'NUMBER'
p750
sg9
S'CD'
p751
sg11
S'one'
p752
sg13
Nsba(ibuftoken
BufToken
p753
(dp754
g5
I4
sg6
S'be'
p755
sg8
S'O'
sg9
S'VB'
p756
sg11
S'be'
p757
sg13
Nsba(ibuftoken
BufToken
p758
(dp759
g5
I5
sg6
S'frightened'
p760
sg8
S'O'
sg9
S'VBN'
p761
sg11
S'frighten'
p762
sg13
Nsba(ibuftoken
BufToken
p763
(dp764
g5
I6
sg6
S'by'
p765
sg8
S'O'
sg9
S'IN'
p766
sg11
S'by'
p767
sg13
Nsba(ibuftoken
BufToken
p768
(dp769
g5
I7
sg6
S'a'
sg8
S'O'
sg9
S'DT'
p770
sg11
S'a'
sg13
Nsba(ibuftoken
BufToken
p771
(dp772
g5
I8
sg6
S'hat'
p773
sg8
S'O'
sg9
S'NN'
p774
sg11
S'hat'
p775
sg13
Nsba(ibuftoken
BufToken
p776
(dp777
g5
I9
sg6
S'?'
sg8
S'O'
sg9
S'.'
sg11
S'?'
sg13
Nsba(ibuftoken
BufToken
p778
(dp779
g5
I10
sg6
S'\xe2\x80\x9d'
p780
sg8
S'O'
sg9
S'SYM'
p781
sg11
S'\xe2\x80\x9d'
p782
sg13
Nsbaa(lp783
(ibuftoken
BufToken
p784
(dp785
g5
I0
sg6
S'My'
p786
sg8
S'O'
sg9
S'PRP$'
p787
sg11
S'my'
p788
sg13
Nsba(ibuftoken
BufToken
p789
(dp790
g5
I1
sg6
S'drawing'
p791
sg8
S'O'
sg9
S'NN'
p792
sg11
S'drawing'
p793
sg13
Nsba(ibuftoken
BufToken
p794
(dp795
g5
I2
sg6
S'was'
p796
sg8
S'O'
sg9
S'VBD'
p797
sg11
S'be'
p798
sg13
Nsba(ibuftoken
BufToken
p799
(dp800
g5
I3
sg6
S'not'
p801
sg8
S'O'
sg9
S'RB'
p802
sg11
S'not'
p803
sg13
Nsba(ibuftoken
BufToken
p804
(dp805
g5
I4
sg6
S'a'
sg8
S'O'
sg9
S'DT'
p806
sg11
S'a'
sg13
Nsba(ibuftoken
BufToken
p807
(dp808
g5
I5
sg6
S'picture'
p809
sg8
S'O'
sg9
S'NN'
p810
sg11
S'picture'
p811
sg13
Nsba(ibuftoken
BufToken
p812
(dp813
g5
I6
sg6
S'of'
p814
sg8
S'O'
sg9
S'IN'
p815
sg11
S'of'
p816
sg13
Nsba(ibuftoken
BufToken
p817
(dp818
g5
I7
sg6
S'a'
sg8
S'O'
sg9
S'DT'
p819
sg11
S'a'
sg13
Nsba(ibuftoken
BufToken
p820
(dp821
g5
I8
sg6
S'hat'
p822
sg8
S'O'
sg9
S'NN'
p823
sg11
S'hat'
p824
sg13
Nsba(ibuftoken
BufToken
p825
(dp826
g5
I9
sg6
S'.'
sg8
S'O'
sg9
S'.'
sg11
S'.'
sg13
Nsbaa(lp827
(ibuftoken
BufToken
p828
(dp829
g5
I0
sg6
S'It'
p830
sg8
S'O'
sg9
S'PRP'
p831
sg11
S'it'
p832
sg13
Nsba(ibuftoken
BufToken
p833
(dp834
g5
I1
sg6
S'was'
p835
sg8
S'O'
sg9
S'VBD'
p836
sg11
S'be'
p837
sg13
Nsba(ibuftoken
BufToken
p838
(dp839
g5
I2
sg6
S'a'
sg8
S'O'
sg9
S'DT'
p840
sg11
S'a'
sg13
Nsba(ibuftoken
BufToken
p841
(dp842
g5
I3
sg6
S'picture'
p843
sg8
S'O'
sg9
S'NN'
p844
sg11
S'picture'
p845
sg13
Nsba(ibuftoken
BufToken
p846
(dp847
g5
I4
sg6
S'of'
p848
sg8
S'O'
sg9
S'IN'
p849
sg11
S'of'
p850
sg13
Nsba(ibuftoken
BufToken
p851
(dp852
g5
I5
sg6
S'a'
sg8
S'O'
sg9
S'DT'
p853
sg11
S'a'
sg13
Nsba(ibuftoken
BufToken
p854
(dp855
g5
I6
sg6
S'boa'
p856
sg8
S'O'
sg9
S'NN'
p857
sg11
S'boa'
p858
sg13
Nsba(ibuftoken
BufToken
p859
(dp860
g5
I7
sg6
S'constrictor'
p861
sg8
S'O'
sg9
S'NN'
p862
sg11
S'constrictor'
p863
sg13
Nsba(ibuftoken
BufToken
p864
(dp865
g5
I8
sg6
S'digesting'
p866
sg8
S'O'
sg9
S'VBG'
p867
sg11
S'digest'
p868
sg13
Nsba(ibuftoken
BufToken
p869
(dp870
g5
I9
sg6
S'an'
p871
sg8
S'O'
sg9
S'DT'
p872
sg11
S'a'
sg13
Nsba(ibuftoken
BufToken
p873
(dp874
g5
I10
sg6
S'elephant'
p875
sg8
S'O'
sg9
S'NN'
p876
sg11
S'elephant'
p877
sg13
Nsba(ibuftoken
BufToken
p878
(dp879
g5
I11
sg6
S'.'
sg8
S'O'
sg9
S'.'
sg11
S'.'
sg13
Nsbaa(lp880
(ibuftoken
BufToken
p881
(dp882
g5
I0
sg6
S'But'
p883
sg8
S'O'
sg9
S'CC'
p884
sg11
S'but'
p885
sg13
Nsba(ibuftoken
BufToken
p886
(dp887
g5
I1
sg6
S'since'
p888
sg8
S'O'
sg9
S'IN'
p889
sg11
S'since'
p890
sg13
Nsba(ibuftoken
BufToken
p891
(dp892
g5
I2
sg6
S'the'
p893
sg8
S'O'
sg9
S'DT'
p894
sg11
S'the'
p895
sg13
Nsba(ibuftoken
BufToken
p896
(dp897
g5
I3
sg6
S'grown'
p898
sg8
S'O'
sg9
S'JJ'
p899
sg11
S'grown'
p900
sg13
Nsba(ibuftoken
BufToken
p901
(dp902
g5
I4
sg6
S'-'
sg8
S'O'
sg9
S':'
sg11
S'-'
sg13
Nsba(ibuftoken
BufToken
p903
(dp904
g5
I5
sg6
S'ups'
p905
sg8
S'O'
sg9
S'NNS'
p906
sg11
S'up'
p907
sg13
Nsba(ibuftoken
BufToken
p908
(dp909
g5
I6
sg6
S'were'
p910
sg8
S'O'
sg9
S'VBD'
p911
sg11
S'be'
p912
sg13
Nsba(ibuftoken
BufToken
p913
(dp914
g5
I7
sg6
S'not'
p915
sg8
S'O'
sg9
S'RB'
p916
sg11
S'not'
p917
sg13
Nsba(ibuftoken
BufToken
p918
(dp919
g5
I8
sg6
S'able'
p920
sg8
S'O'
sg9
S'JJ'
p921
sg11
S'able'
p922
sg13
Nsba(ibuftoken
BufToken
p923
(dp924
g5
I9
sg6
S'to'
p925
sg8
S'O'
sg9
S'TO'
p926
sg11
S'to'
p927
sg13
Nsba(ibuftoken
BufToken
p928
(dp929
g5
I10
sg6
S'understand'
p930
sg8
S'O'
sg9
S'VB'
p931
sg11
S'understand'
p932
sg13
Nsba(ibuftoken
BufToken
p933
(dp934
g5
I11
sg6
S'it'
p935
sg8
S'O'
sg9
S'PRP'
p936
sg11
S'it'
p937
sg13
Nsba(ibuftoken
BufToken
p938
(dp939
g5
I12
sg6
S','
sg8
S'O'
sg9
S','
sg11
S','
sg13
Nsba(ibuftoken
BufToken
p940
(dp941
g5
I13
sg6
S'I'
sg8
S'O'
sg9
S'PRP'
p942
sg11
S'I'
sg13
Nsba(ibuftoken
BufToken
p943
(dp944
g5
I14
sg6
S'made'
p945
sg8
S'O'
sg9
S'VBD'
p946
sg11
S'make'
p947
sg13
Nsba(ibuftoken
BufToken
p948
(dp949
g5
I15
sg6
S'another'
p950
sg8
S'O'
sg9
S'DT'
p951
sg11
S'another'
p952
sg13
Nsba(ibuftoken
BufToken
p953
(dp954
g5
I16
sg6
S'drawing'
p955
sg8
S'O'
sg9
S'NN'
p956
sg11
S'drawing'
p957
sg13
Nsba(ibuftoken
BufToken
p958
(dp959
g5
I17
sg6
S':'
sg8
S'O'
sg9
S':'
sg11
S':'
sg13
Nsba(ibuftoken
BufToken
p960
(dp961
g5
I18
sg6
S'I'
sg8
S'O'
sg9
S'PRP'
p962
sg11
S'I'
sg13
Nsba(ibuftoken
BufToken
p963
(dp964
g5
I19
sg6
S'drew'
p965
sg8
S'O'
sg9
S'VBD'
p966
sg11
S'draw'
p967
sg13
Nsba(ibuftoken
BufToken
p968
(dp969
g5
I20
sg6
S'the'
p970
sg8
S'O'
sg9
S'DT'
p971
sg11
S'the'
p972
sg13
Nsba(ibuftoken
BufToken
p973
(dp974
g5
I21
sg6
S'inside'
p975
sg8
S'O'
sg9
S'NN'
p976
sg11
S'inside'
p977
sg13
Nsba(ibuftoken
BufToken
p978
(dp979
g5
I22
sg6
S'of'
p980
sg8
S'O'
sg9
S'IN'
p981
sg11
S'of'
p982
sg13
Nsba(ibuftoken
BufToken
p983
(dp984
g5
I23
sg6
S'the'
p985
sg8
S'O'
sg9
S'DT'
p986
sg11
S'the'
p987
sg13
Nsba(ibuftoken
BufToken
p988
(dp989
g5
I24
sg6
S'boa'
p990
sg8
S'O'
sg9
S'NN'
p991
sg11
S'boa'
p992
sg13
Nsba(ibuftoken
BufToken
p993
(dp994
g5
I25
sg6
S'constrictor'
p995
sg8
S'O'
sg9
S'NN'
p996
sg11
S'constrictor'
p997
sg13
Nsba(ibuftoken
BufToken
p998
(dp999
g5
I26
sg6
S','
sg8
S'O'
sg9
S','
sg11
S','
sg13
Nsba(ibuftoken
BufToken
p1000
(dp1001
g5
I27
sg6
S'so'
p1002
sg8
S'O'
sg9
S'RB'
p1003
sg11
S'so'
p1004
sg13
Nsba(ibuftoken
BufToken
p1005
(dp1006
g5
I28
sg6
S'that'
p1007
sg8
S'O'
sg9
S'IN'
p1008
sg11
S'that'
p1009
sg13
Nsba(ibuftoken
BufToken
p1010
(dp1011
g5
I29
sg6
S'the'
p1012
sg8
S'O'
sg9
S'DT'
p1013
sg11
S'the'
p1014
sg13
Nsba(ibuftoken
BufToken
p1015
(dp1016
g5
I30
sg6
S'grown'
p1017
sg8
S'O'
sg9
S'JJ'
p1018
sg11
S'grown'
p1019
sg13
Nsba(ibuftoken
BufToken
p1020
(dp1021
g5
I31
sg6
S'-'
sg8
S'O'
sg9
S':'
sg11
S'-'
sg13
Nsba(ibuftoken
BufToken
p1022
(dp1023
g5
I32
sg6
S'ups'
p1024
sg8
S'O'
sg9
S'NNS'
p1025
sg11
S'up'
p1026
sg13
Nsba(ibuftoken
BufToken
p1027
(dp1028
g5
I33
sg6
S'could'
p1029
sg8
S'O'
sg9
S'MD'
p1030
sg11
S'could'
p1031
sg13
Nsba(ibuftoken
BufToken
p1032
(dp1033
g5
I34
sg6
S'see'
p1034
sg8
S'O'
sg9
S'VB'
p1035
sg11
S'see'
p1036
sg13
Nsba(ibuftoken
BufToken
p1037
(dp1038
g5
I35
sg6
S'it'
p1039
sg8
S'O'
sg9
S'PRP'
p1040
sg11
S'it'
p1041
sg13
Nsba(ibuftoken
BufToken
p1042
(dp1043
g5
I36
sg6
S'clearly'
p1044
sg8
S'O'
sg9
S'RB'
p1045
sg11
S'clearly'
p1046
sg13
Nsba(ibuftoken
BufToken
p1047
(dp1048
g5
I37
sg6
S'.'
sg8
S'O'
sg9
S'.'
sg11
S'.'
sg13
Nsbaa(lp1049
(ibuftoken
BufToken
p1050
(dp1051
g5
I0
sg6
S'They'
p1052
sg8
S'O'
sg9
S'PRP'
p1053
sg11
S'they'
p1054
sg13
Nsba(ibuftoken
BufToken
p1055
(dp1056
g5
I1
sg6
S'always'
p1057
sg8
S'O'
sg9
S'RB'
p1058
sg11
S'always'
p1059
sg13
Nsba(ibuftoken
BufToken
p1060
(dp1061
g5
I2
sg6
S'need'
p1062
sg8
S'O'
sg9
S'VBP'
p1063
sg11
S'need'
p1064
sg13
Nsba(ibuftoken
BufToken
p1065
(dp1066
g5
I3
sg6
S'to'
p1067
sg8
S'O'
sg9
S'TO'
p1068
sg11
S'to'
p1069
sg13
Nsba(ibuftoken
BufToken
p1070
(dp1071
g5
I4
sg6
S'have'
p1072
sg8
S'O'
sg9
S'VB'
p1073
sg11
S'have'
p1074
sg13
Nsba(ibuftoken
BufToken
p1075
(dp1076
g5
I5
sg6
S'things'
p1077
sg8
S'O'
sg9
S'NNS'
p1078
sg11
S'thing'
p1079
sg13
Nsba(ibuftoken
BufToken
p1080
(dp1081
g5
I6
sg6
S'explained'
p1082
sg8
S'O'
sg9
S'VBN'
p1083
sg11
S'explain'
p1084
sg13
Nsba(ibuftoken
BufToken
p1085
(dp1086
g5
I7
sg6
S'.'
sg8
S'O'
sg9
S'.'
sg11
S'.'
sg13
Nsbaa(lp1087
(ibuftoken
BufToken
p1088
(dp1089
g5
I0
sg6
S'My'
p1090
sg8
S'O'
sg9
S'PRP$'
p1091
sg11
S'my'
p1092
sg13
Nsba(ibuftoken
BufToken
p1093
(dp1094
g5
I1
sg6
S'Drawing'
p1095
sg8
S'O'
sg9
S'NNP'
p1096
sg11
S'Drawing'
p1097
sg13
Nsba(ibuftoken
BufToken
p1098
(dp1099
g5
I2
sg6
S'Number'
p1100
sg8
S'O'
sg9
S'NNP'
p1101
sg11
S'Number'
p1102
sg13
Nsba(ibuftoken
BufToken
p1103
(dp1104
g5
I3
sg6
S'2'
sg8
S'NUMBER'
p1105
sg9
S'CD'
p1106
sg11
S'Two'
p1107
sg13
Nsba(ibuftoken
BufToken
p1108
(dp1109
g5
I4
sg6
S'looked'
p1110
sg8
S'O'
sg9
S'VBD'
p1111
sg11
S'look'
p1112
sg13
Nsba(ibuftoken
BufToken
p1113
(dp1114
g5
I5
sg6
S'like'
p1115
sg8
S'O'
sg9
S'IN'
p1116
sg11
S'like'
p1117
sg13
Nsba(ibuftoken
BufToken
p1118
(dp1119
g5
I6
sg6
S'this'
p1120
sg8
S'O'
sg9
S'DT'
p1121
sg11
S'this'
p1122
sg13
Nsba(ibuftoken
BufToken
p1123
(dp1124
g5
I7
sg6
S':'
sg8
S'O'
sg9
S':'
sg11
S':'
sg13
Nsba(ibuftoken
BufToken
p1125
(dp1126
g5
I8
sg6
S'The'
p1127
sg8
S'O'
sg9
S'DT'
p1128
sg11
S'the'
p1129
sg13
Nsba(ibuftoken
BufToken
p1130
(dp1131
g5
I9
sg6
S'grown'
p1132
sg8
S'O'
sg9
S'JJ'
p1133
sg11
S'grown'
p1134
sg13
Nsba(ibuftoken
BufToken
p1135
(dp1136
g5
I10
sg6
S'-'
sg8
S'O'
sg9
S':'
sg11
S'-'
sg13
Nsba(ibuftoken
BufToken
p1137
(dp1138
g5
I11
sg6
S'ups'
p1139
sg8
S'O'
sg9
S'NNS'
p1140
sg11
S'up'
p1141
sg13
Nsba(ibuftoken
BufToken
p1142
(dp1143
g5
I12
sg6
S"'"
sg8
S'O'
sg9
S'POS'
p1144
sg11
S"'"
sg13
Nsba(ibuftoken
BufToken
p1145
(dp1146
g5
I13
sg6
S'response'
p1147
sg8
S'O'
sg9
S'NN'
p1148
sg11
S'response'
p1149
sg13
Nsba(ibuftoken
BufToken
p1150
(dp1151
g5
I14
sg6
S','
sg8
S'O'
sg9
S','
sg11
S','
sg13
Nsba(ibuftoken
BufToken
p1152
(dp1153
g5
I15
sg6
S'this'
p1154
sg8
S'O'
sg9
S'DT'
p1155
sg11
S'this'
p1156
sg13
Nsba(ibuftoken
BufToken
p1157
(dp1158
g5
I16
sg6
S'time'
p1159
sg8
S'O'
sg9
S'NN'
p1160
sg11
S'time'
p1161
sg13
Nsba(ibuftoken
BufToken
p1162
(dp1163
g5
I17
sg6
S','
sg8
S'O'
sg9
S','
sg11
S','
sg13
Nsba(ibuftoken
BufToken
p1164
(dp1165
g5
I18
sg6
S'was'
p1166
sg8
S'O'
sg9
S'VBD'
p1167
sg11
S'be'
p1168
sg13
Nsba(ibuftoken
BufToken
p1169
(dp1170
g5
I19
sg6
S'to'
p1171
sg8
S'O'
sg9
S'TO'
p1172
sg11
S'to'
p1173
sg13
Nsba(ibuftoken
BufToken
p1174
(dp1175
g5
I20
sg6
S'advise'
p1176
sg8
S'O'
sg9
S'VB'
p1177
sg11
S'advise'
p1178
sg13
Nsba(ibuftoken
BufToken
p1179
(dp1180
g5
I21
sg6
S'me'
p1181
sg8
S'O'
sg9
S'PRP'
p1182
sg11
S'I'
sg13
Nsba(ibuftoken
BufToken
p1183
(dp1184
g5
I22
sg6
S'to'
p1185
sg8
S'O'
sg9
S'TO'
p1186
sg11
S'to'
p1187
sg13
Nsba(ibuftoken
BufToken
p1188
(dp1189
g5
I23
sg6
S'lay'
p1190
sg8
S'O'
sg9
S'VB'
p1191
sg11
S'lay'
p1192
sg13
Nsba(ibuftoken
BufToken
p1193
(dp1194
g5
I24
sg6
S'aside'
p1195
sg8
S'O'
sg9
S'RB'
p1196
sg11
S'aside'
p1197
sg13
Nsba(ibuftoken
BufToken
p1198
(dp1199
g5
I25
sg6
S'my'
p1200
sg8
S'O'
sg9
S'PRP$'
p1201
sg11
S'my'
p1202
sg13
Nsba(ibuftoken
BufToken
p1203
(dp1204
g5
I26
sg6
S'drawings'
p1205
sg8
S'O'
sg9
S'NNS'
p1206
sg11
S'drawing'
p1207
sg13
Nsba(ibuftoken
BufToken
p1208
(dp1209
g5
I27
sg6
S'of'
p1210
sg8
S'O'
sg9
S'IN'
p1211
sg11
S'of'
p1212
sg13
Nsba(ibuftoken
BufToken
p1213
(dp1214
g5
I28
sg6
S'boa'
p1215
sg8
S'O'
sg9
S'NN'
p1216
sg11
S'boa'
p1217
sg13
Nsba(ibuftoken
BufToken
p1218
(dp1219
g5
I29
sg6
S'constrictors'
p1220
sg8
S'O'
sg9
S'NNS'
p1221
sg11
S'constrictor'
p1222
sg13
Nsba(ibuftoken
BufToken
p1223
(dp1224
g5
I30
sg6
S','
sg8
S'O'
sg9
S','
sg11
S','
sg13
Nsba(ibuftoken
BufToken
p1225
(dp1226
g5
I31
sg6
S'whether'
p1227
sg8
S'O'
sg9
S'IN'
p1228
sg11
S'whether'
p1229
sg13
Nsba(ibuftoken
BufToken
p1230
(dp1231
g5
I32
sg6
S'from'
p1232
sg8
S'O'
sg9
S'IN'
p1233
sg11
S'from'
p1234
sg13
Nsba(ibuftoken
BufToken
p1235
(dp1236
g5
I33
sg6
S'the'
p1237
sg8
S'O'
sg9
S'DT'
p1238
sg11
S'the'
p1239
sg13
Nsba(ibuftoken
BufToken
p1240
(dp1241
g5
I34
sg6
S'inside'
p1242
sg8
S'O'
sg9
S'NN'
p1243
sg11
S'inside'
p1244
sg13
Nsba(ibuftoken
BufToken
p1245
(dp1246
g5
I35
sg6
S'or'
p1247
sg8
S'O'
sg9
S'CC'
p1248
sg11
S'or'
p1249
sg13
Nsba(ibuftoken
BufToken
p1250
(dp1251
g5
I36
sg6
S'the'
p1252
sg8
S'O'
sg9
S'DT'
p1253
sg11
S'the'
p1254
sg13
Nsba(ibuftoken
BufToken
p1255
(dp1256
g5
I37
sg6
S'outside'
p1257
sg8
S'O'
sg9
S'JJ'
p1258
sg11
S'outside'
p1259
sg13
Nsba(ibuftoken
BufToken
p1260
(dp1261
g5
I38
sg6
S','
sg8
S'O'
sg9
S','
sg11
S','
sg13
Nsba(ibuftoken
BufToken
p1262
(dp1263
g5
I39
sg6
S'and'
p1264
sg8
S'O'
sg9
S'CC'
p1265
sg11
S'and'
p1266
sg13
Nsba(ibuftoken
BufToken
p1267
(dp1268
g5
I40
sg6
S'devote'
p1269
sg8
S'O'
sg9
S'VBP'
p1270
sg11
S'devote'
p1271
sg13
Nsba(ibuftoken
BufToken
p1272
(dp1273
g5
I41
sg6
S'myself'
p1274
sg8
S'O'
sg9
S'PRP'
p1275
sg11
S'myself'
p1276
sg13
Nsba(ibuftoken
BufToken
p1277
(dp1278
g5
I42
sg6
S'instead'
p1279
sg8
S'O'
sg9
S'RB'
p1280
sg11
S'instead'
p1281
sg13
Nsba(ibuftoken
BufToken
p1282
(dp1283
g5
I43
sg6
S'to'
p1284
sg8
S'O'
sg9
S'TO'
p1285
sg11
S'to'
p1286
sg13
Nsba(ibuftoken
BufToken
p1287
(dp1288
g5
I44
sg6
S'geography'
p1289
sg8
S'O'
sg9
S'NN'
p1290
sg11
S'geography'
p1291
sg13
Nsba(ibuftoken
BufToken
p1292
(dp1293
g5
I45
sg6
S','
sg8
S'O'
sg9
S','
sg11
S','
sg13
Nsba(ibuftoken
BufToken
p1294
(dp1295
g5
I46
sg6
S'history'
p1296
sg8
S'O'
sg9
S'NN'
p1297
sg11
S'history'
p1298
sg13
Nsba(ibuftoken
BufToken
p1299
(dp1300
g5
I47
sg6
S','
sg8
S'O'
sg9
S','
sg11
S','
sg13
Nsba(ibuftoken
BufToken
p1301
(dp1302
g5
I48
sg6
S'arithmetic'
p1303
sg8
S'O'
sg9
S'NN'
p1304
sg11
S'arithmetic'
p1305
sg13
Nsba(ibuftoken
BufToken
p1306
(dp1307
g5
I49
sg6
S'and'
p1308
sg8
S'O'
sg9
S'CC'
p1309
sg11
S'and'
p1310
sg13
Nsba(ibuftoken
BufToken
p1311
(dp1312
g5
I50
sg6
S'grammar'
p1313
sg8
S'O'
sg9
S'NN'
p1314
sg11
S'grammar'
p1315
sg13
Nsba(ibuftoken
BufToken
p1316
(dp1317
g5
I51
sg6
S'.'
sg8
S'O'
sg9
S'.'
sg11
S'.'
sg13
Nsbaa(lp1318
(ibuftoken
BufToken
p1319
(dp1320
g5
I0
sg6
S'That'
p1321
sg8
S'O'
sg9
S'DT'
p1322
sg11
S'that'
p1323
sg13
Nsba(ibuftoken
BufToken
p1324
(dp1325
g5
I1
sg6
S'is'
p1326
sg8
S'O'
sg9
S'VBZ'
p1327
sg11
S'be'
p1328
sg13
Nsba(ibuftoken
BufToken
p1329
(dp1330
g5
I2
sg6
S'why'
p1331
sg8
S'O'
sg9
S'WRB'
p1332
sg11
S'why'
p1333
sg13
Nsba(ibuftoken
BufToken
p1334
(dp1335
g5
I3
sg6
S','
sg8
S'O'
sg9
S','
sg11
S','
sg13
Nsba(ibuftoken
BufToken
p1336
(dp1337
g5
I4
sg6
S'at'
p1338
sg8
S'O'
sg9
S'IN'
p1339
sg11
S'at'
p1340
sg13
Nsba(ibuftoken
BufToken
p1341
(dp1342
g5
I5
sg6
S'the'
p1343
sg8
S'O'
sg9
S'DT'
p1344
sg11
S'the'
p1345
sg13
Nsba(ibuftoken
BufToken
p1346
(dp1347
g5
I6
sg6
S'age'
p1348
sg8
S'O'
sg9
S'NN'
p1349
sg11
S'age'
p1350
sg13
Nsba(ibuftoken
BufToken
p1351
(dp1352
g5
I7
sg6
S'of'
p1353
sg8
S'O'
sg9
S'IN'
p1354
sg11
S'of'
p1355
sg13
Nsba(ibuftoken
BufToken
p1356
(dp1357
g5
I8
sg6
S'6'
sg8
S'NUMBER'
p1358
sg9
S'CD'
p1359
sg11
S'six'
p1360
sg13
Nsba(ibuftoken
BufToken
p1361
(dp1362
g5
I9
sg6
S','
sg8
S'O'
sg9
S','
sg11
S','
sg13
Nsba(ibuftoken
BufToken
p1363
(dp1364
g5
I10
sg6
S'I'
sg8
S'O'
sg9
S'PRP'
p1365
sg11
S'I'
sg13
Nsba(ibuftoken
BufToken
p1366
(dp1367
g5
I11
sg6
S'gave'
p1368
sg8
S'O'
sg9
S'VBD'
p1369
sg11
S'give'
p1370
sg13
Nsba(ibuftoken
BufToken
p1371
(dp1372
g5
I12
sg6
S'up'
p1373
sg8
S'O'
sg9
S'RP'
p1374
sg11
S'up'
p1375
sg13
Nsba(ibuftoken
BufToken
p1376
(dp1377
g5
I13
sg6
S'what'
p1378
sg8
S'O'
sg9
S'WP'
p1379
sg11
S'what'
p1380
sg13
Nsba(ibuftoken
BufToken
p1381
(dp1382
g5
I14
sg6
S'might'
p1383
sg8
S'O'
sg9
S'MD'
p1384
sg11
S'might'
p1385
sg13
Nsba(ibuftoken
BufToken
p1386
(dp1387
g5
I15
sg6
S'have'
p1388
sg8
S'O'
sg9
S'VB'
p1389
sg11
S'have'
p1390
sg13
Nsba(ibuftoken
BufToken
p1391
(dp1392
g5
I16
sg6
S'been'
p1393
sg8
S'O'
sg9
S'VBN'
p1394
sg11
S'be'
p1395
sg13
Nsba(ibuftoken
BufToken
p1396
(dp1397
g5
I17
sg6
S'a'
sg8
S'O'
sg9
S'DT'
p1398
sg11
S'a'
sg13
Nsba(ibuftoken
BufToken
p1399
(dp1400
g5
I18
sg6
S'magnificent'
p1401
sg8
S'O'
sg9
S'JJ'
p1402
sg11
S'magnificent'
p1403
sg13
Nsba(ibuftoken
BufToken
p1404
(dp1405
g5
I19
sg6
S'career'
p1406
sg8
S'O'
sg9
S'NN'
p1407
sg11
S'career'
p1408
sg13
Nsba(ibuftoken
BufToken
p1409
(dp1410
g5
I20
sg6
S'as'
p1411
sg8
S'O'
sg9
S'IN'
p1412
sg11
S'as'
p1413
sg13
Nsba(ibuftoken
BufToken
p1414
(dp1415
g5
I21
sg6
S'a'
sg8
S'O'
sg9
S'DT'
p1416
sg11
S'a'
sg13
Nsba(ibuftoken
BufToken
p1417
(dp1418
g5
I22
sg6
S'painter'
p1419
sg8
S'O'
sg9
S'NN'
p1420
sg11
S'painter'
p1421
sg13
Nsba(ibuftoken
BufToken
p1422
(dp1423
g5
I23
sg6
S'.'
sg8
S'O'
sg9
S'.'
sg11
S'.'
sg13
Nsbaa(lp1424
(ibuftoken
BufToken
p1425
(dp1426
g5
I0
sg6
S'I'
sg8
S'O'
sg9
S'PRP'
p1427
sg11
S'I'
sg13
Nsba(ibuftoken
BufToken
p1428
(dp1429
g5
I1
sg6
S'had'
p1430
sg8
S'O'
sg9
S'VBD'
p1431
sg11
S'have'
p1432
sg13
Nsba(ibuftoken
BufToken
p1433
(dp1434
g5
I2
sg6
S'been'
p1435
sg8
S'O'
sg9
S'VBN'
p1436
sg11
S'be'
p1437
sg13
Nsba(ibuftoken
BufToken
p1438
(dp1439
g5
I3
sg6
S'disheartened'
p1440
sg8
S'O'
sg9
S'VBN'
p1441
sg11
S'dishearten'
p1442
sg13
Nsba(ibuftoken
BufToken
p1443
(dp1444
g5
I4
sg6
S'by'
p1445
sg8
S'O'
sg9
S'IN'
p1446
sg11
S'by'
p1447
sg13
Nsba(ibuftoken
BufToken
p1448
(dp1449
g5
I5
sg6
S'the'
p1450
sg8
S'O'
sg9
S'DT'
p1451
sg11
S'the'
p1452
sg13
Nsba(ibuftoken
BufToken
p1453
(dp1454
g5
I6
sg6
S'failure'
p1455
sg8
S'O'
sg9
S'NN'
p1456
sg11
S'failure'
p1457
sg13
Nsba(ibuftoken
BufToken
p1458
(dp1459
g5
I7
sg6
S'of'
p1460
sg8
S'O'
sg9
S'IN'
p1461
sg11
S'of'
p1462
sg13
Nsba(ibuftoken
BufToken
p1463
(dp1464
g5
I8
sg6
S'my'
p1465
sg8
S'O'
sg9
S'PRP$'
p1466
sg11
S'my'
p1467
sg13
Nsba(ibuftoken
BufToken
p1468
(dp1469
g5
I9
sg6
S'Drawing'
p1470
sg8
S'O'
sg9
S'NNP'
p1471
sg11
S'Drawing'
p1472
sg13
Nsba(ibuftoken
BufToken
p1473
(dp1474
g5
I10
sg6
S'Number'
p1475
sg8
S'O'
sg9
S'NNP'
p1476
sg11
S'Number'
p1477
sg13
Nsba(ibuftoken
BufToken
p1478
(dp1479
g5
I11
sg6
S'1'
sg8
S'NUMBER'
p1480
sg9
S'CD'
p1481
sg11
S'One'
p1482
sg13
Nsba(ibuftoken
BufToken
p1483
(dp1484
g5
I12
sg6
S'and'
p1485
sg8
S'O'
sg9
S'CC'
p1486
sg11
S'and'
p1487
sg13
Nsba(ibuftoken
BufToken
p1488
(dp1489
g5
I13
sg6
S'my'
p1490
sg8
S'O'
sg9
S'PRP$'
p1491
sg11
S'my'
p1492
sg13
Nsba(ibuftoken
BufToken
p1493
(dp1494
g5
I14
sg6
S'Drawing'
p1495
sg8
S'O'
sg9
S'NNP'
p1496
sg11
S'Drawing'
p1497
sg13
Nsba(ibuftoken
BufToken
p1498
(dp1499
g5
I15
sg6
S'Number'
p1500
sg8
S'O'
sg9
S'NNP'
p1501
sg11
S'Number'
p1502
sg13
Nsba(ibuftoken
BufToken
p1503
(dp1504
g5
I16
sg6
S'2'
sg8
S'NUMBER'
p1505
sg9
S'CD'
p1506
sg11
S'Two'
p1507
sg13
Nsba(ibuftoken
BufToken
p1508
(dp1509
g5
I17
sg6
S'.'
sg8
S'O'
sg9
S'.'
sg11
S'.'
sg13
Nsbaa(lp1510
(ibuftoken
BufToken
p1511
(dp1512
g5
I0
sg6
S'Grown'
p1513
sg8
S'O'
sg9
S'VBN'
p1514
sg11
S'grow'
p1515
sg13
Nsba(ibuftoken
BufToken
p1516
(dp1517
g5
I1
sg6
S'-'
sg8
S'O'
sg9
S':'
sg11
S'-'
sg13
Nsba(ibuftoken
BufToken
p1518
(dp1519
g5
I2
sg6
S'ups'
p1520
sg8
S'O'
sg9
S'NNS'
p1521
sg11
S'up'
p1522
sg13
Nsba(ibuftoken
BufToken
p1523
(dp1524
g5
I3
sg6
S'never'
p1525
sg8
S'O'
sg9
S'RB'
p1526
sg11
S'never'
p1527
sg13
Nsba(ibuftoken
BufToken
p1528
(dp1529
g5
I4
sg6
S'understand'
p1530
sg8
S'O'
sg9
S'VBP'
p1531
sg11
S'understand'
p1532
sg13
Nsba(ibuftoken
BufToken
p1533
(dp1534
g5
I5
sg6
S'anything'
p1535
sg8
S'O'
sg9
S'NN'
p1536
sg11
S'anything'
p1537
sg13
Nsba(ibuftoken
BufToken
p1538
(dp1539
g5
I6
sg6
S'by'
p1540
sg8
S'O'
sg9
S'IN'
p1541
sg11
S'by'
p1542
sg13
Nsba(ibuftoken
BufToken
p1543
(dp1544
g5
I7
sg6
S'themselves'
p1545
sg8
S'O'
sg9
S'PRP'
p1546
sg11
S'themselves'
p1547
sg13
Nsba(ibuftoken
BufToken
p1548
(dp1549
g5
I8
sg6
S','
sg8
S'O'
sg9
S','
sg11
S','
sg13
Nsba(ibuftoken
BufToken
p1550
(dp1551
g5
I9
sg6
S'and'
p1552
sg8
S'O'
sg9
S'CC'
p1553
sg11
S'and'
p1554
sg13
Nsba(ibuftoken
BufToken
p1555
(dp1556
g5
I10
sg6
S'it'
p1557
sg8
S'O'
sg9
S'PRP'
p1558
sg11
S'it'
p1559
sg13
Nsba(ibuftoken
BufToken
p1560
(dp1561
g5
I11
sg6
S'is'
p1562
sg8
S'O'
sg9
S'VBZ'
p1563
sg11
S'be'
p1564
sg13
Nsba(ibuftoken
BufToken
p1565
(dp1566
g5
I12
sg6
S'tiresome'
p1567
sg8
S'O'
sg9
S'JJ'
p1568
sg11
S'tiresome'
p1569
sg13
Nsba(ibuftoken
BufToken
p1570
(dp1571
g5
I13
sg6
S'for'
p1572
sg8
S'O'
sg9
S'IN'
p1573
sg11
S'for'
p1574
sg13
Nsba(ibuftoken
BufToken
p1575
(dp1576
g5
I14
sg6
S'children'
p1577
sg8
S'O'
sg9
S'NNS'
p1578
sg11
S'child'
p1579
sg13
Nsba(ibuftoken
BufToken
p1580
(dp1581
g5
I15
sg6
S'to'
p1582
sg8
S'O'
sg9
S'TO'
p1583
sg11
S'to'
p1584
sg13
Nsba(ibuftoken
BufToken
p1585
(dp1586
g5
I16
sg6
S'be'
p1587
sg8
S'O'
sg9
S'VB'
p1588
sg11
S'be'
p1589
sg13
Nsba(ibuftoken
BufToken
p1590
(dp1591
g5
I17
sg6
S'always'
p1592
sg8
S'O'
sg9
S'RB'
p1593
sg11
S'always'
p1594
sg13
Nsba(ibuftoken
BufToken
p1595
(dp1596
g5
I18
sg6
S'and'
p1597
sg8
S'O'
sg9
S'CC'
p1598
sg11
S'and'
p1599
sg13
Nsba(ibuftoken
BufToken
p1600
(dp1601
g5
I19
sg6
S'forever'
p1602
sg8
S'O'
sg9
S'RB'
p1603
sg11
S'forever'
p1604
sg13
Nsba(ibuftoken
BufToken
p1605
(dp1606
g5
I20
sg6
S'explaining'
p1607
sg8
S'O'
sg9
S'VBG'
p1608
sg11
S'explain'
p1609
sg13
Nsba(ibuftoken
BufToken
p1610
(dp1611
g5
I21
sg6
S'things'
p1612
sg8
S'O'
sg9
S'NNS'
p1613
sg11
S'thing'
p1614
sg13
Nsba(ibuftoken
BufToken
p1615
(dp1616
g5
I22
sg6
S'to'
p1617
sg8
S'O'
sg9
S'TO'
p1618
sg11
S'to'
p1619
sg13
Nsba(ibuftoken
BufToken
p1620
(dp1621
g5
I23
sg6
S'them'
p1622
sg8
S'O'
sg9
S'PRP'
p1623
sg11
S'they'
p1624
sg13
Nsba(ibuftoken
BufToken
p1625
(dp1626
g5
I24
sg6
S'.'
sg8
S'O'
sg9
S'.'
sg11
S'.'
sg13
Nsbaa(lp1627
(ibuftoken
BufToken
p1628
(dp1629
g5
I0
sg6
S'So'
p1630
sg8
S'O'
sg9
S'RB'
p1631
sg11
S'so'
p1632
sg13
Nsba(ibuftoken
BufToken
p1633
(dp1634
g5
I1
sg6
S'then'
p1635
sg8
S'O'
sg9
S'RB'
p1636
sg11
S'then'
p1637
sg13
Nsba(ibuftoken
BufToken
p1638
(dp1639
g5
I2
sg6
S'I'
sg8
S'O'
sg9
S'PRP'
p1640
sg11
S'I'
sg13
Nsba(ibuftoken
BufToken
p1641
(dp1642
g5
I3
sg6
S'chose'
p1643
sg8
S'O'
sg9
S'VBD'
p1644
sg11
S'choose'
p1645
sg13
Nsba(ibuftoken
BufToken
p1646
(dp1647
g5
I4
sg6
S'another'
p1648
sg8
S'O'
sg9
S'DT'
p1649
sg11
S'another'
p1650
sg13
Nsba(ibuftoken
BufToken
p1651
(dp1652
g5
I5
sg6
S'profession'
p1653
sg8
S'O'
sg9
S'NN'
p1654
sg11
S'profession'
p1655
sg13
Nsba(ibuftoken
BufToken
p1656
(dp1657
g5
I6
sg6
S','
sg8
S'O'
sg9
S','
sg11
S','
sg13
Nsba(ibuftoken
BufToken
p1658
(dp1659
g5
I7
sg6
S'and'
p1660
sg8
S'O'
sg9
S'CC'
p1661
sg11
S'and'
p1662
sg13
Nsba(ibuftoken
BufToken
p1663
(dp1664
g5
I8
sg6
S'learned'
p1665
sg8
S'O'
sg9
S'VBD'
p1666
sg11
S'learn'
p1667
sg13
Nsba(ibuftoken
BufToken
p1668
(dp1669
g5
I9
sg6
S'to'
p1670
sg8
S'O'
sg9
S'TO'
p1671
sg11
S'to'
p1672
sg13
Nsba(ibuftoken
BufToken
p1673
(dp1674
g5
I10
sg6
S'pilot'
p1675
sg8
S'O'
sg9
S'NN'
p1676
sg11
S'pilot'
p1677
sg13
Nsba(ibuftoken
BufToken
p1678
(dp1679
g5
I11
sg6
S'airplanes'
p1680
sg8
S'O'
sg9
S'NNS'
p1681
sg11
S'airplane'
p1682
sg13
Nsba(ibuftoken
BufToken
p1683
(dp1684
g5
I12
sg6
S'.'
sg8
S'O'
sg9
S'.'
sg11
S'.'
sg13
Nsbaa(lp1685
(ibuftoken
BufToken
p1686
(dp1687
g5
I0
sg6
S'I'
sg8
S'O'
sg9
S'PRP'
p1688
sg11
S'I'
sg13
Nsba(ibuftoken
BufToken
p1689
(dp1690
g5
I1
sg6
S'have'
p1691
sg8
S'O'
sg9
S'VBP'
p1692
sg11
S'have'
p1693
sg13
Nsba(ibuftoken
BufToken
p1694
(dp1695
g5
I2
sg6
S'flown'
p1696
sg8
S'O'
sg9
S'VBN'
p1697
sg11
S'fly'
p1698
sg13
Nsba(ibuftoken
BufToken
p1699
(dp1700
g5
I3
sg6
S'a'
sg8
S'O'
sg9
S'DT'
p1701
sg11
S'a'
sg13
Nsba(ibuftoken
BufToken
p1702
(dp1703
g5
I4
sg6
S'little'
p1704
sg8
S'O'
sg9
S'JJ'
p1705
sg11
S'little'
p1706
sg13
Nsba(ibuftoken
BufToken
p1707
(dp1708
g5
I5
sg6
S'over'
p1709
sg8
S'O'
sg9
S'IN'
p1710
sg11
S'over'
p1711
sg13
Nsba(ibuftoken
BufToken
p1712
(dp1713
g5
I6
sg6
S'all'
p1714
sg8
S'O'
sg9
S'DT'
p1715
sg11
S'all'
p1716
sg13
Nsba(ibuftoken
BufToken
p1717
(dp1718
g5
I7
sg6
S'parts'
p1719
sg8
S'O'
sg9
S'NNS'
p1720
sg11
S'part'
p1721
sg13
Nsba(ibuftoken
BufToken
p1722
(dp1723
g5
I8
sg6
S'of'
p1724
sg8
S'O'
sg9
S'IN'
p1725
sg11
S'of'
p1726
sg13
Nsba(ibuftoken
BufToken
p1727
(dp1728
g5
I9
sg6
S'the'
p1729
sg8
S'O'
sg9
S'DT'
p1730
sg11
S'the'
p1731
sg13
Nsba(ibuftoken
BufToken
p1732
(dp1733
g5
I10
sg6
S'world'
p1734
sg8
S'O'
sg9
S'NN'
p1735
sg11
S'world'
p1736
sg13
Nsba(ibuftoken
BufToken
p1737
(dp1738
g5
I11
sg6
S';'
sg8
S'O'
sg9
S':'
sg11
S';'
sg13
Nsba(ibuftoken
BufToken
p1739
(dp1740
g5
I12
sg6
S'and'
p1741
sg8
S'O'
sg9
S'CC'
p1742
sg11
S'and'
p1743
sg13
Nsba(ibuftoken
BufToken
p1744
(dp1745
g5
I13
sg6
S'it'
p1746
sg8
S'O'
sg9
S'PRP'
p1747
sg11
S'it'
p1748
sg13
Nsba(ibuftoken
BufToken
p1749
(dp1750
g5
I14
sg6
S'is'
p1751
sg8
S'O'
sg9
S'VBZ'
p1752
sg11
S'be'
p1753
sg13
Nsba(ibuftoken
BufToken
p1754
(dp1755
g5
I15
sg6
S'true'
p1756
sg8
S'O'
sg9
S'JJ'
p1757
sg11
S'true'
p1758
sg13
Nsba(ibuftoken
BufToken
p1759
(dp1760
g5
I16
sg6
S'that'
p1761
sg8
S'O'
sg9
S'IN'
p1762
sg11
S'that'
p1763
sg13
Nsba(ibuftoken
BufToken
p1764
(dp1765
g5
I17
sg6
S'geography'
p1766
sg8
S'O'
sg9
S'NN'
p1767
sg11
S'geography'
p1768
sg13
Nsba(ibuftoken
BufToken
p1769
(dp1770
g5
I18
sg6
S'has'
p1771
sg8
S'O'
sg9
S'VBZ'
p1772
sg11
S'have'
p1773
sg13
Nsba(ibuftoken
BufToken
p1774
(dp1775
g5
I19
sg6
S'been'
p1776
sg8
S'O'
sg9
S'VBN'
p1777
sg11
S'be'
p1778
sg13
Nsba(ibuftoken
BufToken
p1779
(dp1780
g5
I20
sg6
S'very'
p1781
sg8
S'O'
sg9
S'RB'
p1782
sg11
S'very'
p1783
sg13
Nsba(ibuftoken
BufToken
p1784
(dp1785
g5
I21
sg6
S'useful'
p1786
sg8
S'O'
sg9
S'JJ'
p1787
sg11
S'useful'
p1788
sg13
Nsba(ibuftoken
BufToken
p1789
(dp1790
g5
I22
sg6
S'to'
p1791
sg8
S'O'
sg9
S'TO'
p1792
sg11
S'to'
p1793
sg13
Nsba(ibuftoken
BufToken
p1794
(dp1795
g5
I23
sg6
S'me'
p1796
sg8
S'O'
sg9
S'PRP'
p1797
sg11
S'I'
sg13
Nsba(ibuftoken
BufToken
p1798
(dp1799
g5
I24
sg6
S'.'
sg8
S'O'
sg9
S'.'
sg11
S'.'
sg13
Nsbaa(lp1800
(ibuftoken
BufToken
p1801
(dp1802
g5
I0
sg6
S'At'
p1803
sg8
S'O'
sg9
S'IN'
p1804
sg11
S'at'
p1805
sg13
Nsba(ibuftoken
BufToken
p1806
(dp1807
g5
I1
sg6
S'a'
sg8
S'O'
sg9
S'DT'
p1808
sg11
S'a'
sg13
Nsba(ibuftoken
BufToken
p1809
(dp1810
g5
I2
sg6
S'glance'
p1811
sg8
S'O'
sg9
S'NN'
p1812
sg11
S'glance'
p1813
sg13
Nsba(ibuftoken
BufToken
p1814
(dp1815
g5
I3
sg6
S'I'
sg8
S'O'
sg9
S'PRP'
p1816
sg11
S'I'
sg13
Nsba(ibuftoken
BufToken
p1817
(dp1818
g5
I4
sg6
S'can'
p1819
sg8
S'O'
sg9
S'MD'
p1820
sg11
S'can'
p1821
sg13
Nsba(ibuftoken
BufToken
p1822
(dp1823
g5
I5
sg6
S'distinguish'
p1824
sg8
S'O'
sg9
S'VB'
p1825
sg11
S'distinguish'
p1826
sg13
Nsba(ibuftoken
BufToken
p1827
(dp1828
g5
I6
sg6
S'China'
p1829
sg8
S'LOCATION'
p1830
sg9
S'NNP'
p1831
sg11
S'China'
p1832
sg13
Nsba(ibuftoken
BufToken
p1833
(dp1834
g5
I7
sg6
S'from'
p1835
sg8
S'O'
sg9
S'IN'
p1836
sg11
S'from'
p1837
sg13
Nsba(ibuftoken
BufToken
p1838
(dp1839
g5
I8
sg6
S'Arizona'
p1840
sg8
S'LOCATION'
p1841
sg9
S'NNP'
p1842
sg11
S'Arizona'
p1843
sg13
Nsba(ibuftoken
BufToken
p1844
(dp1845
g5
I9
sg6
S'.'
sg8
S'O'
sg9
S'.'
sg11
S'.'
sg13
Nsbaa(lp1846
(ibuftoken
BufToken
p1847
(dp1848
g5
I0
sg6
S'If'
p1849
sg8
S'O'
sg9
S'IN'
p1850
sg11
S'if'
p1851
sg13
Nsba(ibuftoken
BufToken
p1852
(dp1853
g5
I1
sg6
S'1'
sg8
S'NUMBER'
p1854
sg9
S'CD'
p1855
sg11
S'one'
p1856
sg13
Nsba(ibuftoken
BufToken
p1857
(dp1858
g5
I2
sg6
S'gets'
p1859
sg8
S'O'
sg9
S'VBZ'
p1860
sg11
S'get'
p1861
sg13
Nsba(ibuftoken
BufToken
p1862
(dp1863
g5
I3
sg6
S'lost'
p1864
sg8
S'O'
sg9
S'VBN'
p1865
sg11
S'lose'
p1866
sg13
Nsba(ibuftoken
BufToken
p1867
(dp1868
g5
I4
sg6
S'in'
p1869
sg8
S'O'
sg9
S'IN'
p1870
sg11
S'in'
p1871
sg13
Nsba(ibuftoken
BufToken
p1872
(dp1873
g5
I5
sg6
S'the'
p1874
sg8
S'O'
sg9
S'DT'
p1875
sg11
S'the'
p1876
sg13
Nsba(ibuftoken
BufToken
p1877
(dp1878
g5
I6
sg6
S'night'
p1879
sg8
S'TIME'
p1880
sg9
S'NN'
p1881
sg11
S'night'
p1882
sg13
Nsba(ibuftoken
BufToken
p1883
(dp1884
g5
I7
sg6
S','
sg8
S'O'
sg9
S','
sg11
S','
sg13
Nsba(ibuftoken
BufToken
p1885
(dp1886
g5
I8
sg6
S'such'
p1887
sg8
S'O'
sg9
S'JJ'
p1888
sg11
S'such'
p1889
sg13
Nsba(ibuftoken
BufToken
p1890
(dp1891
g5
I9
sg6
S'knowledge'
p1892
sg8
S'O'
sg9
S'NN'
p1893
sg11
S'knowledge'
p1894
sg13
Nsba(ibuftoken
BufToken
p1895
(dp1896
g5
I10
sg6
S'is'
p1897
sg8
S'O'
sg9
S'VBZ'
p1898
sg11
S'be'
p1899
sg13
Nsba(ibuftoken
BufToken
p1900
(dp1901
g5
I11
sg6
S'valuable'
p1902
sg8
S'O'
sg9
S'JJ'
p1903
sg11
S'valuable'
p1904
sg13
Nsba(ibuftoken
BufToken
p1905
(dp1906
g5
I12
sg6
S'.'
sg8
S'O'
sg9
S'.'
sg11
S'.'
sg13
Nsbaa(lp1907
(ibuftoken
BufToken
p1908
(dp1909
g5
I0
sg6
S'In'
p1910
sg8
S'O'
sg9
S'IN'
p1911
sg11
S'in'
p1912
sg13
Nsba(ibuftoken
BufToken
p1913
(dp1914
g5
I1
sg6
S'the'
p1915
sg8
S'O'
sg9
S'DT'
p1916
sg11
S'the'
p1917
sg13
Nsba(ibuftoken
BufToken
p1918
(dp1919
g5
I2
sg6
S'course'
p1920
sg8
S'O'
sg9
S'NN'
p1921
sg11
S'course'
p1922
sg13
Nsba(ibuftoken
BufToken
p1923
(dp1924
g5
I3
sg6
S'of'
p1925
sg8
S'O'
sg9
S'IN'
p1926
sg11
S'of'
p1927
sg13
Nsba(ibuftoken
BufToken
p1928
(dp1929
g5
I4
sg6
S'this'
p1930
sg8
S'O'
sg9
S'DT'
p1931
sg11
S'this'
p1932
sg13
Nsba(ibuftoken
BufToken
p1933
(dp1934
g5
I5
sg6
S'life'
p1935
sg8
S'O'
sg9
S'NN'
p1936
sg11
S'life'
p1937
sg13
Nsba(ibuftoken
BufToken
p1938
(dp1939
g5
I6
sg6
S'I'
sg8
S'O'
sg9
S'PRP'
p1940
sg11
S'I'
sg13
Nsba(ibuftoken
BufToken
p1941
(dp1942
g5
I7
sg6
S'have'
p1943
sg8
S'O'
sg9
S'VBP'
p1944
sg11
S'have'
p1945
sg13
Nsba(ibuftoken
BufToken
p1946
(dp1947
g5
I8
sg6
S'had'
p1948
sg8
S'O'
sg9
S'VBD'
p1949
sg11
S'have'
p1950
sg13
Nsba(ibuftoken
BufToken
p1951
(dp1952
g5
I9
sg6
S'a'
sg8
S'O'
sg9
S'DT'
p1953
sg11
S'a'
sg13
Nsba(ibuftoken
BufToken
p1954
(dp1955
g5
I10
sg6
S'great'
p1956
sg8
S'O'
sg9
S'JJ'
p1957
sg11
S'great'
p1958
sg13
Nsba(ibuftoken
BufToken
p1959
(dp1960
g5
I11
sg6
S'many'
p1961
sg8
S'O'
sg9
S'JJ'
p1962
sg11
S'many'
p1963
sg13
Nsba(ibuftoken
BufToken
p1964
(dp1965
g5
I12
sg6
S'encounters'
p1966
sg8
S'O'
sg9
S'NNS'
p1967
sg11
S'encounter'
p1968
sg13
Nsba(ibuftoken
BufToken
p1969
(dp1970
g5
I13
sg6
S'with'
p1971
sg8
S'O'
sg9
S'IN'
p1972
sg11
S'with'
p1973
sg13
Nsba(ibuftoken
BufToken
p1974
(dp1975
g5
I14
sg6
S'a'
sg8
S'O'
sg9
S'DT'
p1976
sg11
S'a'
sg13
Nsba(ibuftoken
BufToken
p1977
(dp1978
g5
I15
sg6
S'great'
p1979
sg8
S'O'
sg9
S'JJ'
p1980
sg11
S'great'
p1981
sg13
Nsba(ibuftoken
BufToken
p1982
(dp1983
g5
I16
sg6
S'many'
p1984
sg8
S'O'
sg9
S'JJ'
p1985
sg11
S'many'
p1986
sg13
Nsba(ibuftoken
BufToken
p1987
(dp1988
g5
I17
sg6
S'people'
p1989
sg8
S'O'
sg9
S'NNS'
p1990
sg11
S'people'
p1991
sg13
Nsba(ibuftoken
BufToken
p1992
(dp1993
g5
I18
sg6
S'who'
p1994
sg8
S'O'
sg9
S'WP'
p1995
sg11
S'who'
p1996
sg13
Nsba(ibuftoken
BufToken
p1997
(dp1998
g5
I19
sg6
S'have'
p1999
sg8
S'O'
sg9
S'VBP'
p2000
sg11
S'have'
p2001
sg13
Nsba(ibuftoken
BufToken
p2002
(dp2003
g5
I20
sg6
S'been'
p2004
sg8
S'O'
sg9
S'VBN'
p2005
sg11
S'be'
p2006
sg13
Nsba(ibuftoken
BufToken
p2007
(dp2008
g5
I21
sg6
S'concerned'
p2009
sg8
S'O'
sg9
S'VBN'
p2010
sg11
S'concern'
p2011
sg13
Nsba(ibuftoken
BufToken
p2012
(dp2013
g5
I22
sg6
S'with'
p2014
sg8
S'O'
sg9
S'IN'
p2015
sg11
S'with'
p2016
sg13
Nsba(ibuftoken
BufToken
p2017
(dp2018
g5
I23
sg6
S'matters'
p2019
sg8
S'O'
sg9
S'NNS'
p2020
sg11
S'matter'
p2021
sg13
Nsba(ibuftoken
BufToken
p2022
(dp2023
g5
I24
sg6
S'of'
p2024
sg8
S'O'
sg9
S'IN'
p2025
sg11
S'of'
p2026
sg13
Nsba(ibuftoken
BufToken
p2027
(dp2028
g5
I25
sg6
S'consequence'
p2029
sg8
S'O'
sg9
S'NN'
p2030
sg11
S'consequence'
p2031
sg13
Nsba(ibuftoken
BufToken
p2032
(dp2033
g5
I26
sg6
S'.'
sg8
S'O'
sg9
S'.'
sg11
S'.'
sg13
Nsbaa(lp2034
(ibuftoken
BufToken
p2035
(dp2036
g5
I0
sg6
S'I'
sg8
S'O'
sg9
S'PRP'
p2037
sg11
S'I'
sg13
Nsba(ibuftoken
BufToken
p2038
(dp2039
g5
I1
sg6
S'have'
p2040
sg8
S'O'
sg9
S'VBP'
p2041
sg11
S'have'
p2042
sg13
Nsba(ibuftoken
BufToken
p2043
(dp2044
g5
I2
sg6
S'lived'
p2045
sg8
S'O'
sg9
S'VBN'
p2046
sg11
S'live'
p2047
sg13
Nsba(ibuftoken
BufToken
p2048
(dp2049
g5
I3
sg6
S'a'
sg8
S'O'
sg9
S'DT'
p2050
sg11
S'a'
sg13
Nsba(ibuftoken
BufToken
p2051
(dp2052
g5
I4
sg6
S'great'
p2053
sg8
S'O'
sg9
S'JJ'
p2054
sg11
S'great'
p2055
sg13
Nsba(ibuftoken
BufToken
p2056
(dp2057
g5
I5
sg6
S'deal'
p2058
sg8
S'O'
sg9
S'NN'
p2059
sg11
S'deal'
p2060
sg13
Nsba(ibuftoken
BufToken
p2061
(dp2062
g5
I6
sg6
S'among'
p2063
sg8
S'O'
sg9
S'IN'
p2064
sg11
S'among'
p2065
sg13
Nsba(ibuftoken
BufToken
p2066
(dp2067
g5
I7
sg6
S'grown'
p2068
sg8
S'O'
sg9
S'JJ'
p2069
sg11
S'grown'
p2070
sg13
Nsba(ibuftoken
BufToken
p2071
(dp2072
g5
I8
sg6
S'-'
sg8
S'O'
sg9
S':'
sg11
S'-'
sg13
Nsba(ibuftoken
BufToken
p2073
(dp2074
g5
I9
sg6
S'ups'
p2075
sg8
S'O'
sg9
S'NNS'
p2076
sg11
S'up'
p2077
sg13
Nsba(ibuftoken
BufToken
p2078
(dp2079
g5
I10
sg6
S'.'
sg8
S'O'
sg9
S'.'
sg11
S'.'
sg13
Nsbaa(lp2080
(ibuftoken
BufToken
p2081
(dp2082
g5
I0
sg6
S'I'
sg8
S'O'
sg9
S'PRP'
p2083
sg11
S'I'
sg13
Nsba(ibuftoken
BufToken
p2084
(dp2085
g5
I1
sg6
S'have'
p2086
sg8
S'O'
sg9
S'VBP'
p2087
sg11
S'have'
p2088
sg13
Nsba(ibuftoken
BufToken
p2089
(dp2090
g5
I2
sg6
S'seen'
p2091
sg8
S'O'
sg9
S'VBN'
p2092
sg11
S'see'
p2093
sg13
Nsba(ibuftoken
BufToken
p2094
(dp2095
g5
I3
sg6
S'them'
p2096
sg8
S'O'
sg9
S'PRP'
p2097
sg11
S'they'
p2098
sg13
Nsba(ibuftoken
BufToken
p2099
(dp2100
g5
I4
sg6
S'intimately'
p2101
sg8
S'O'
sg9
S'RB'
p2102
sg11
S'intimately'
p2103
sg13
Nsba(ibuftoken
BufToken
p2104
(dp2105
g5
I5
sg6
S','
sg8
S'O'
sg9
S','
sg11
S','
sg13
Nsba(ibuftoken
BufToken
p2106
(dp2107
g5
I6
sg6
S'close'
p2108
sg8
S'O'
sg9
S'RB'
p2109
sg11
S'close'
p2110
sg13
Nsba(ibuftoken
BufToken
p2111
(dp2112
g5
I7
sg6
S'at'
p2113
sg8
S'O'
sg9
S'IN'
p2114
sg11
S'at'
p2115
sg13
Nsba(ibuftoken
BufToken
p2116
(dp2117
g5
I8
sg6
S'hand'
p2118
sg8
S'O'
sg9
S'NN'
p2119
sg11
S'hand'
p2120
sg13
Nsba(ibuftoken
BufToken
p2121
(dp2122
g5
I9
sg6
S'.'
sg8
S'O'
sg9
S'.'
sg11
S'.'
sg13
Nsbaa(lp2123
(ibuftoken
BufToken
p2124
(dp2125
g5
I0
sg6
S'And'
p2126
sg8
S'O'
sg9
S'CC'
p2127
sg11
S'and'
p2128
sg13
Nsba(ibuftoken
BufToken
p2129
(dp2130
g5
I1
sg6
S'that'
p2131
sg8
S'O'
sg9
S'DT'
p2132
sg11
S'that'
p2133
sg13
Nsba(ibuftoken
BufToken
p2134
(dp2135
g5
I2
sg6
S'has'
p2136
sg8
S'O'
sg9
S'VBZ'
p2137
sg11
S'have'
p2138
sg13
Nsba(ibuftoken
BufToken
p2139
(dp2140
g5
I3
sg6
S"n't"
p2141
sg8
S'O'
sg9
S'RB'
p2142
sg11
S'not'
p2143
sg13
Nsba(ibuftoken
BufToken
p2144
(dp2145
g5
I4
sg6
S'much'
p2146
sg8
S'O'
sg9
S'JJ'
p2147
sg11
S'much'
p2148
sg13
Nsba(ibuftoken
BufToken
p2149
(dp2150
g5
I5
sg6
S'improved'
p2151
sg8
S'O'
sg9
S'VBN'
p2152
sg11
S'improve'
p2153
sg13
Nsba(ibuftoken
BufToken
p2154
(dp2155
g5
I6
sg6
S'my'
p2156
sg8
S'O'
sg9
S'PRP$'
p2157
sg11
S'my'
p2158
sg13
Nsba(ibuftoken
BufToken
p2159
(dp2160
g5
I7
sg6
S'opinion'
p2161
sg8
S'O'
sg9
S'NN'
p2162
sg11
S'opinion'
p2163
sg13
Nsba(ibuftoken
BufToken
p2164
(dp2165
g5
I8
sg6
S'of'
p2166
sg8
S'O'
sg9
S'IN'
p2167
sg11
S'of'
p2168
sg13
Nsba(ibuftoken
BufToken
p2169
(dp2170
g5
I9
sg6
S'them'
p2171
sg8
S'O'
sg9
S'PRP'
p2172
sg11
S'they'
p2173
sg13
Nsba(ibuftoken
BufToken
p2174
(dp2175
g5
I10
sg6
S'.'
sg8
S'O'
sg9
S'.'
sg11
S'.'
sg13
Nsbaa(lp2176
(ibuftoken
BufToken
p2177
(dp2178
g5
I0
sg6
S'Whenever'
p2179
sg8
S'O'
sg9
S'NNP'
p2180
sg11
S'Whenever'
p2181
sg13
Nsba(ibuftoken
BufToken
p2182
(dp2183
g5
I1
sg6
S'I'
sg8
S'O'
sg9
S'PRP'
p2184
sg11
S'I'
sg13
Nsba(ibuftoken
BufToken
p2185
(dp2186
g5
I2
sg6
S'met'
p2187
sg8
S'O'
sg9
S'VBD'
p2188
sg11
S'meet'
p2189
sg13
Nsba(ibuftoken
BufToken
p2190
(dp2191
g5
I3
sg6
S'1'
sg8
S'NUMBER'
p2192
sg9
S'CD'
p2193
sg11
S'one'
p2194
sg13
Nsba(ibuftoken
BufToken
p2195
(dp2196
g5
I4
sg6
S'of'
p2197
sg8
S'O'
sg9
S'IN'
p2198
sg11
S'of'
p2199
sg13
Nsba(ibuftoken
BufToken
p2200
(dp2201
g5
I5
sg6
S'them'
p2202
sg8
S'O'
sg9
S'PRP'
p2203
sg11
S'they'
p2204
sg13
Nsba(ibuftoken
BufToken
p2205
(dp2206
g5
I6
sg6
S'who'
p2207
sg8
S'O'
sg9
S'WP'
p2208
sg11
S'who'
p2209
sg13
Nsba(ibuftoken
BufToken
p2210
(dp2211
g5
I7
sg6
S'seemed'
p2212
sg8
S'O'
sg9
S'VBD'
p2213
sg11
S'seem'
p2214
sg13
Nsba(ibuftoken
BufToken
p2215
(dp2216
g5
I8
sg6
S'to'
p2217
sg8
S'O'
sg9
S'TO'
p2218
sg11
S'to'
p2219
sg13
Nsba(ibuftoken
BufToken
p2220
(dp2221
g5
I9
sg6
S'me'
p2222
sg8
S'O'
sg9
S'PRP'
p2223
sg11
S'I'
sg13
Nsba(ibuftoken
BufToken
p2224
(dp2225
g5
I10
sg6
S'at'
p2226
sg8
S'O'
sg9
S'IN'
p2227
sg11
S'at'
p2228
sg13
Nsba(ibuftoken
BufToken
p2229
(dp2230
g5
I11
sg6
S'all'
p2231
sg8
S'O'
sg9
S'DT'
p2232
sg11
S'all'
p2233
sg13
Nsba(ibuftoken
BufToken
p2234
(dp2235
g5
I12
sg6
S'clear'
p2236
sg8
S'O'
sg9
S'JJ'
p2237
sg11
S'clear'
p2238
sg13
Nsba(ibuftoken
BufToken
p2239
(dp2240
g5
I13
sg6
S'-'
sg8
S'O'
sg9
S':'
sg11
S'-'
sg13
Nsba(ibuftoken
BufToken
p2241
(dp2242
g5
I14
sg6
S'sighted'
p2243
sg8
S'O'
sg9
S'VBN'
p2244
sg11
S'sight'
p2245
sg13
Nsba(ibuftoken
BufToken
p2246
(dp2247
g5
I15
sg6
S','
sg8
S'O'
sg9
S','
sg11
S','
sg13
Nsba(ibuftoken
BufToken
p2248
(dp2249
g5
I16
sg6
S'I'
sg8
S'O'
sg9
S'PRP'
p2250
sg11
S'I'
sg13
Nsba(ibuftoken
BufToken
p2251
(dp2252
g5
I17
sg6
S'tried'
p2253
sg8
S'O'
sg9
S'VBD'
p2254
sg11
S'try'
p2255
sg13
Nsba(ibuftoken
BufToken
p2256
(dp2257
g5
I18
sg6
S'the'
p2258
sg8
S'O'
sg9
S'DT'
p2259
sg11
S'the'
p2260
sg13
Nsba(ibuftoken
BufToken
p2261
(dp2262
g5
I19
sg6
S'experiment'
p2263
sg8
S'O'
sg9
S'NN'
p2264
sg11
S'experiment'
p2265
sg13
Nsba(ibuftoken
BufToken
p2266
(dp2267
g5
I20
sg6
S'of'
p2268
sg8
S'O'
sg9
S'IN'
p2269
sg11
S'of'
p2270
sg13
Nsba(ibuftoken
BufToken
p2271
(dp2272
g5
I21
sg6
S'showing'
p2273
sg8
S'O'
sg9
S'VBG'
p2274
sg11
S'show'
p2275
sg13
Nsba(ibuftoken
BufToken
p2276
(dp2277
g5
I22
sg6
S'him'
p2278
sg8
S'O'
sg9
S'PRP'
p2279
sg11
S'he'
p2280
sg13
Nsba(ibuftoken
BufToken
p2281
(dp2282
g5
I23
sg6
S'my'
p2283
sg8
S'O'
sg9
S'PRP$'
p2284
sg11
S'my'
p2285
sg13
Nsba(ibuftoken
BufToken
p2286
(dp2287
g5
I24
sg6
S'Drawing_Number'
p2288
sg8
S'MISC'
p2289
sg9
S'NNP'
p2290
sg11
S'Number'
p2291
sg13
Nsba(ibuftoken
BufToken
p2292
(dp2293
g5
I25
sg6
S'1'
sg8
S'NUMBER'
p2294
sg9
S'CD'
p2295
sg11
S'One'
p2296
sg13
Nsba(ibuftoken
BufToken
p2297
(dp2298
g5
I26
sg6
S','
sg8
S'O'
sg9
S','
sg11
S','
sg13
Nsba(ibuftoken
BufToken
p2299
(dp2300
g5
I27
sg6
S'which'
p2301
sg8
S'O'
sg9
S'WDT'
p2302
sg11
S'which'
p2303
sg13
Nsba(ibuftoken
BufToken
p2304
(dp2305
g5
I28
sg6
S'I'
sg8
S'O'
sg9
S'PRP'
p2306
sg11
S'I'
sg13
Nsba(ibuftoken
BufToken
p2307
(dp2308
g5
I29
sg6
S'have'
p2309
sg8
S'O'
sg9
S'VBP'
p2310
sg11
S'have'
p2311
sg13
Nsba(ibuftoken
BufToken
p2312
(dp2313
g5
I30
sg6
S'always'
p2314
sg8
S'O'
sg9
S'RB'
p2315
sg11
S'always'
p2316
sg13
Nsba(ibuftoken
BufToken
p2317
(dp2318
g5
I31
sg6
S'kept'
p2319
sg8
S'O'
sg9
S'VBN'
p2320
sg11
S'keep'
p2321
sg13
Nsba(ibuftoken
BufToken
p2322
(dp2323
g5
I32
sg6
S'.'
sg8
S'O'
sg9
S'.'
sg11
S'.'
sg13
Nsbaa(lp2324
(ibuftoken
BufToken
p2325
(dp2326
g5
I0
sg6
S'I'
sg8
S'O'
sg9
S'PRP'
p2327
sg11
S'I'
sg13
Nsba(ibuftoken
BufToken
p2328
(dp2329
g5
I1
sg6
S'would'
p2330
sg8
S'O'
sg9
S'MD'
p2331
sg11
S'would'
p2332
sg13
Nsba(ibuftoken
BufToken
p2333
(dp2334
g5
I2
sg6
S'try'
p2335
sg8
S'O'
sg9
S'VB'
p2336
sg11
S'try'
p2337
sg13
Nsba(ibuftoken
BufToken
p2338
(dp2339
g5
I3
sg6
S'to'
p2340
sg8
S'O'
sg9
S'TO'
p2341
sg11
S'to'
p2342
sg13
Nsba(ibuftoken
BufToken
p2343
(dp2344
g5
I4
sg6
S'find'
p2345
sg8
S'O'
sg9
S'VB'
p2346
sg11
S'find'
p2347
sg13
Nsba(ibuftoken
BufToken
p2348
(dp2349
g5
I5
sg6
S'out'
p2350
sg8
S'O'
sg9
S'RP'
p2351
sg11
S'out'
p2352
sg13
Nsba(ibuftoken
BufToken
p2353
(dp2354
g5
I6
sg6
S','
sg8
S'O'
sg9
S','
sg11
S','
sg13
Nsba(ibuftoken
BufToken
p2355
(dp2356
g5
I7
sg6
S'so'
p2357
sg8
S'O'
sg9
S'RB'
p2358
sg11
S'so'
p2359
sg13
Nsba(ibuftoken
BufToken
p2360
(dp2361
g5
I8
sg6
S','
sg8
S'O'
sg9
S','
sg11
S','
sg13
Nsba(ibuftoken
BufToken
p2362
(dp2363
g5
I9
sg6
S'if'
p2364
sg8
S'O'
sg9
S'IN'
p2365
sg11
S'if'
p2366
sg13
Nsba(ibuftoken
BufToken
p2367
(dp2368
g5
I10
sg6
S'this'
p2369
sg8
S'O'
sg9
S'DT'
p2370
sg11
S'this'
p2371
sg13
Nsba(ibuftoken
BufToken
p2372
(dp2373
g5
I11
sg6
S'was'
p2374
sg8
S'O'
sg9
S'VBD'
p2375
sg11
S'be'
p2376
sg13
Nsba(ibuftoken
BufToken
p2377
(dp2378
g5
I12
sg6
S'a'
sg8
S'O'
sg9
S'DT'
p2379
sg11
S'a'
sg13
Nsba(ibuftoken
BufToken
p2380
(dp2381
g5
I13
sg6
S'person'
p2382
sg8
S'O'
sg9
S'NN'
p2383
sg11
S'person'
p2384
sg13
Nsba(ibuftoken
BufToken
p2385
(dp2386
g5
I14
sg6
S'of'
p2387
sg8
S'O'
sg9
S'IN'
p2388
sg11
S'of'
p2389
sg13
Nsba(ibuftoken
BufToken
p2390
(dp2391
g5
I15
sg6
S'true'
p2392
sg8
S'O'
sg9
S'JJ'
p2393
sg11
S'true'
p2394
sg13
Nsba(ibuftoken
BufToken
p2395
(dp2396
g5
I16
sg6
S'understanding'
p2397
sg8
S'O'
sg9
S'NN'
p2398
sg11
S'understanding'
p2399
sg13
Nsba(ibuftoken
BufToken
p2400
(dp2401
g5
I17
sg6
S'.'
sg8
S'O'
sg9
S'.'
sg11
S'.'
sg13
Nsbaa(lp2402
(ibuftoken
BufToken
p2403
(dp2404
g5
I0
sg6
S'But'
p2405
sg8
S'O'
sg9
S'CC'
p2406
sg11
S'but'
p2407
sg13
Nsba(ibuftoken
BufToken
p2408
(dp2409
g5
I1
sg6
S','
sg8
S'O'
sg9
S','
sg11
S','
sg13
Nsba(ibuftoken
BufToken
p2410
(dp2411
g5
I2
sg6
S'whoever'
p2412
sg8
S'O'
sg9
S'WP'
p2413
sg11
S'whoever'
p2414
sg13
Nsba(ibuftoken
BufToken
p2415
(dp2416
g5
I3
sg6
S'it'
p2417
sg8
S'O'
sg9
S'PRP'
p2418
sg11
S'it'
p2419
sg13
Nsba(ibuftoken
BufToken
p2420
(dp2421
g5
I4
sg6
S'was'
p2422
sg8
S'O'
sg9
S'VBD'
p2423
sg11
S'be'
p2424
sg13
Nsba(ibuftoken
BufToken
p2425
(dp2426
g5
I5
sg6
S','
sg8
S'O'
sg9
S','
sg11
S','
sg13
Nsba(ibuftoken
BufToken
p2427
(dp2428
g5
I6
sg6
S'he'
p2429
sg8
S'O'
sg9
S'PRP'
p2430
sg11
S'he'
p2431
sg13
Nsba(ibuftoken
BufToken
p2432
(dp2433
g5
I7
sg6
S','
sg8
S'O'
sg9
S','
sg11
S','
sg13
Nsba(ibuftoken
BufToken
p2434
(dp2435
g5
I8
sg6
S'or'
p2436
sg8
S'O'
sg9
S'CC'
p2437
sg11
S'or'
p2438
sg13
Nsba(ibuftoken
BufToken
p2439
(dp2440
g5
I9
sg6
S'she'
p2441
sg8
S'O'
sg9
S'PRP'
p2442
sg11
S'she'
p2443
sg13
Nsba(ibuftoken
BufToken
p2444
(dp2445
g5
I10
sg6
S','
sg8
S'O'
sg9
S','
sg11
S','
sg13
Nsba(ibuftoken
BufToken
p2446
(dp2447
g5
I11
sg6
S'would'
p2448
sg8
S'O'
sg9
S'MD'
p2449
sg11
S'would'
p2450
sg13
Nsba(ibuftoken
BufToken
p2451
(dp2452
g5
I12
sg6
S'always'
p2453
sg8
S'O'
sg9
S'RB'
p2454
sg11
S'always'
p2455
sg13
Nsba(ibuftoken
BufToken
p2456
(dp2457
g5
I13
sg6
S'say'
p2458
sg8
S'O'
sg9
S'VB'
p2459
sg11
S'say'
p2460
sg13
Nsba(ibuftoken
BufToken
p2461
(dp2462
g5
I14
sg6
S':'
sg8
S'O'
sg9
S':'
sg11
S':'
sg13
Nsba(ibuftoken
BufToken
p2463
(dp2464
g5
I15
sg6
S'"'
sg8
S'O'
sg9
S'``'
p2465
sg11
S'"'
sg13
Nsba(ibuftoken
BufToken
p2466
(dp2467
g5
I16
sg6
S'That'
p2468
sg8
S'O'
sg9
S'WDT'
p2469
sg11
S'that'
p2470
sg13
Nsba(ibuftoken
BufToken
p2471
(dp2472
g5
I17
sg6
S'is'
p2473
sg8
S'O'
sg9
S'VBZ'
p2474
sg11
S'be'
p2475
sg13
Nsba(ibuftoken
BufToken
p2476
(dp2477
g5
I18
sg6
S'a'
sg8
S'O'
sg9
S'DT'
p2478
sg11
S'a'
sg13
Nsba(ibuftoken
BufToken
p2479
(dp2480
g5
I19
sg6
S'hat'
p2481
sg8
S'O'
sg9
S'NN'
p2482
sg11
S'hat'
p2483
sg13
Nsba(ibuftoken
BufToken
p2484
(dp2485
g5
I20
sg6
S'.'
sg8
S'O'
sg9
S'.'
sg11
S'.'
sg13
Nsba(ibuftoken
BufToken
p2486
(dp2487
g5
I21
sg6
S'\xe2\x80\x9d'
p2488
sg8
S'O'
sg9
S'SYM'
p2489
sg11
S'\xe2\x80\x9d'
p2490
sg13
Nsbaa(lp2491
(ibuftoken
BufToken
p2492
(dp2493
g5
I0
sg6
S'Then'
p2494
sg8
S'O'
sg9
S'RB'
p2495
sg11
S'then'
p2496
sg13
Nsba(ibuftoken
BufToken
p2497
(dp2498
g5
I1
sg6
S'I'
sg8
S'O'
sg9
S'PRP'
p2499
sg11
S'I'
sg13
Nsba(ibuftoken
BufToken
p2500
(dp2501
g5
I2
sg6
S'would'
p2502
sg8
S'O'
sg9
S'MD'
p2503
sg11
S'would'
p2504
sg13
Nsba(ibuftoken
BufToken
p2505
(dp2506
g5
I3
sg6
S'never'
p2507
sg8
S'O'
sg9
S'RB'
p2508
sg11
S'never'
p2509
sg13
Nsba(ibuftoken
BufToken
p2510
(dp2511
g5
I4
sg6
S'talk'
p2512
sg8
S'O'
sg9
S'VB'
p2513
sg11
S'talk'
p2514
sg13
Nsba(ibuftoken
BufToken
p2515
(dp2516
g5
I5
sg6
S'to'
p2517
sg8
S'O'
sg9
S'TO'
p2518
sg11
S'to'
p2519
sg13
Nsba(ibuftoken
BufToken
p2520
(dp2521
g5
I6
sg6
S'that'
p2522
sg8
S'O'
sg9
S'DT'
p2523
sg11
S'that'
p2524
sg13
Nsba(ibuftoken
BufToken
p2525
(dp2526
g5
I7
sg6
S'person'
p2527
sg8
S'O'
sg9
S'NN'
p2528
sg11
S'person'
p2529
sg13
Nsba(ibuftoken
BufToken
p2530
(dp2531
g5
I8
sg6
S'about'
p2532
sg8
S'O'
sg9
S'IN'
p2533
sg11
S'about'
p2534
sg13
Nsba(ibuftoken
BufToken
p2535
(dp2536
g5
I9
sg6
S'boa'
p2537
sg8
S'O'
sg9
S'NN'
p2538
sg11
S'boa'
p2539
sg13
Nsba(ibuftoken
BufToken
p2540
(dp2541
g5
I10
sg6
S'constrictors'
p2542
sg8
S'O'
sg9
S'NNS'
p2543
sg11
S'constrictor'
p2544
sg13
Nsba(ibuftoken
BufToken
p2545
(dp2546
g5
I11
sg6
S','
sg8
S'O'
sg9
S','
sg11
S','
sg13
Nsba(ibuftoken
BufToken
p2547
(dp2548
g5
I12
sg6
S'or'
p2549
sg8
S'O'
sg9
S'CC'
p2550
sg11
S'or'
p2551
sg13
Nsba(ibuftoken
BufToken
p2552
(dp2553
g5
I13
sg6
S'primeval'
p2554
sg8
S'O'
sg9
S'JJ'
p2555
sg11
S'primeval'
p2556
sg13
Nsba(ibuftoken
BufToken
p2557
(dp2558
g5
I14
sg6
S'forests'
p2559
sg8
S'O'
sg9
S'NNS'
p2560
sg11
S'forest'
p2561
sg13
Nsba(ibuftoken
BufToken
p2562
(dp2563
g5
I15
sg6
S','
sg8
S'O'
sg9
S','
sg11
S','
sg13
Nsba(ibuftoken
BufToken
p2564
(dp2565
g5
I16
sg6
S'or'
p2566
sg8
S'O'
sg9
S'CC'
p2567
sg11
S'or'
p2568
sg13
Nsba(ibuftoken
BufToken
p2569
(dp2570
g5
I17
sg6
S'stars'
p2571
sg8
S'O'
sg9
S'NNS'
p2572
sg11
S'star'
p2573
sg13
Nsba(ibuftoken
BufToken
p2574
(dp2575
g5
I18
sg6
S'.'
sg8
S'O'
sg9
S'.'
sg11
S'.'
sg13
Nsbaa(lp2576
(ibuftoken
BufToken
p2577
(dp2578
g5
I0
sg6
S'I'
sg8
S'O'
sg9
S'PRP'
p2579
sg11
S'I'
sg13
Nsba(ibuftoken
BufToken
p2580
(dp2581
g5
I1
sg6
S'would'
p2582
sg8
S'O'
sg9
S'MD'
p2583
sg11
S'would'
p2584
sg13
Nsba(ibuftoken
BufToken
p2585
(dp2586
g5
I2
sg6
S'bring'
p2587
sg8
S'O'
sg9
S'VB'
p2588
sg11
S'bring'
p2589
sg13
Nsba(ibuftoken
BufToken
p2590
(dp2591
g5
I3
sg6
S'myself'
p2592
sg8
S'O'
sg9
S'PRP'
p2593
sg11
S'myself'
p2594
sg13
Nsba(ibuftoken
BufToken
p2595
(dp2596
g5
I4
sg6
S'down'
p2597
sg8
S'O'
sg9
S'RB'
p2598
sg11
S'down'
p2599
sg13
Nsba(ibuftoken
BufToken
p2600
(dp2601
g5
I5
sg6
S'to'
p2602
sg8
S'O'
sg9
S'TO'
p2603
sg11
S'to'
p2604
sg13
Nsba(ibuftoken
BufToken
p2605
(dp2606
g5
I6
sg6
S'his'
p2607
sg8
S'O'
sg9
S'PRP$'
p2608
sg11
S'he'
p2609
sg13
Nsba(ibuftoken
BufToken
p2610
(dp2611
g5
I7
sg6
S'level'
p2612
sg8
S'O'
sg9
S'NN'
p2613
sg11
S'level'
p2614
sg13
Nsba(ibuftoken
BufToken
p2615
(dp2616
g5
I8
sg6
S'.'
sg8
S'O'
sg9
S'.'
sg11
S'.'
sg13
Nsbaa(lp2617
(ibuftoken
BufToken
p2618
(dp2619
g5
I0
sg6
S'I'
sg8
S'O'
sg9
S'PRP'
p2620
sg11
S'I'
sg13
Nsba(ibuftoken
BufToken
p2621
(dp2622
g5
I1
sg6
S'would'
p2623
sg8
S'O'
sg9
S'MD'
p2624
sg11
S'would'
p2625
sg13
Nsba(ibuftoken
BufToken
p2626
(dp2627
g5
I2
sg6
S'talk'
p2628
sg8
S'O'
sg9
S'VB'
p2629
sg11
S'talk'
p2630
sg13
Nsba(ibuftoken
BufToken
p2631
(dp2632
g5
I3
sg6
S'to'
p2633
sg8
S'O'
sg9
S'TO'
p2634
sg11
S'to'
p2635
sg13
Nsba(ibuftoken
BufToken
p2636
(dp2637
g5
I4
sg6
S'him'
p2638
sg8
S'O'
sg9
S'PRP'
p2639
sg11
S'he'
p2640
sg13
Nsba(ibuftoken
BufToken
p2641
(dp2642
g5
I5
sg6
S'about'
p2643
sg8
S'O'
sg9
S'IN'
p2644
sg11
S'about'
p2645
sg13
Nsba(ibuftoken
BufToken
p2646
(dp2647
g5
I6
sg6
S'bridge'
p2648
sg8
S'O'
sg9
S'NN'
p2649
sg11
S'bridge'
p2650
sg13
Nsba(ibuftoken
BufToken
p2651
(dp2652
g5
I7
sg6
S','
sg8
S'O'
sg9
S','
sg11
S','
sg13
Nsba(ibuftoken
BufToken
p2653
(dp2654
g5
I8
sg6
S'and'
p2655
sg8
S'O'
sg9
S'CC'
p2656
sg11
S'and'
p2657
sg13
Nsba(ibuftoken
BufToken
p2658
(dp2659
g5
I9
sg6
S'golf'
p2660
sg8
S'O'
sg9
S'NN'
p2661
sg11
S'golf'
p2662
sg13
Nsba(ibuftoken
BufToken
p2663
(dp2664
g5
I10
sg6
S','
sg8
S'O'
sg9
S','
sg11
S','
sg13
Nsba(ibuftoken
BufToken
p2665
(dp2666
g5
I11
sg6
S'and'
p2667
sg8
S'O'
sg9
S'CC'
p2668
sg11
S'and'
p2669
sg13
Nsba(ibuftoken
BufToken
p2670
(dp2671
g5
I12
sg6
S'politics'
p2672
sg8
S'O'
sg9
S'NNS'
p2673
sg11
S'politics'
p2674
sg13
Nsba(ibuftoken
BufToken
p2675
(dp2676
g5
I13
sg6
S','
sg8
S'O'
sg9
S','
sg11
S','
sg13
Nsba(ibuftoken
BufToken
p2677
(dp2678
g5
I14
sg6
S'and'
p2679
sg8
S'O'
sg9
S'CC'
p2680
sg11
S'and'
p2681
sg13
Nsba(ibuftoken
BufToken
p2682
(dp2683
g5
I15
sg6
S'neckties'
p2684
sg8
S'O'
sg9
S'NNS'
p2685
sg11
S'necktie'
p2686
sg13
Nsba(ibuftoken
BufToken
p2687
(dp2688
g5
I16
sg6
S'.'
sg8
S'O'
sg9
S'.'
sg11
S'.'
sg13
Nsbaa(lp2689
(ibuftoken
BufToken
p2690
(dp2691
g5
I0
sg6
S'And'
p2692
sg8
S'O'
sg9
S'CC'
p2693
sg11
S'and'
p2694
sg13
Nsba(ibuftoken
BufToken
p2695
(dp2696
g5
I1
sg6
S'the'
p2697
sg8
S'O'
sg9
S'DT'
p2698
sg11
S'the'
p2699
sg13
Nsba(ibuftoken
BufToken
p2700
(dp2701
g5
I2
sg6
S'grown'
p2702
sg8
S'O'
sg9
S'VBN'
p2703
sg11
S'grow'
p2704
sg13
Nsba(ibuftoken
BufToken
p2705
(dp2706
g5
I3
sg6
S'-'
sg8
S'O'
sg9
S':'
sg11
S'-'
sg13
Nsba(ibuftoken
BufToken
p2707
(dp2708
g5
I4
sg6
S'up'
p2709
sg8
S'O'
sg9
S'RP'
p2710
sg11
S'up'
p2711
sg13
Nsba(ibuftoken
BufToken
p2712
(dp2713
g5
I5
sg6
S'would'
p2714
sg8
S'O'
sg9
S'MD'
p2715
sg11
S'would'
p2716
sg13
Nsba(ibuftoken
BufToken
p2717
(dp2718
g5
I6
sg6
S'be'
p2719
sg8
S'O'
sg9
S'VB'
p2720
sg11
S'be'
p2721
sg13
Nsba(ibuftoken
BufToken
p2722
(dp2723
g5
I7
sg6
S'greatly'
p2724
sg8
S'O'
sg9
S'RB'
p2725
sg11
S'greatly'
p2726
sg13
Nsba(ibuftoken
BufToken
p2727
(dp2728
g5
I8
sg6
S'pleased'
p2729
sg8
S'O'
sg9
S'JJ'
p2730
sg11
S'pleased'
p2731
sg13
Nsba(ibuftoken
BufToken
p2732
(dp2733
g5
I9
sg6
S'to'
p2734
sg8
S'O'
sg9
S'TO'
p2735
sg11
S'to'
p2736
sg13
Nsba(ibuftoken
BufToken
p2737
(dp2738
g5
I10
sg6
S'have'
p2739
sg8
S'O'
sg9
S'VB'
p2740
sg11
S'have'
p2741
sg13
Nsba(ibuftoken
BufToken
p2742
(dp2743
g5
I11
sg6
S'met'
p2744
sg8
S'O'
sg9
S'VBN'
p2745
sg11
S'meet'
p2746
sg13
Nsba(ibuftoken
BufToken
p2747
(dp2748
g5
I12
sg6
S'such'
p2749
sg8
S'O'
sg9
S'PDT'
p2750
sg11
S'such'
p2751
sg13
Nsba(ibuftoken
BufToken
p2752
(dp2753
g5
I13
sg6
S'a'
sg8
S'O'
sg9
S'DT'
p2754
sg11
S'a'
sg13
Nsba(ibuftoken
BufToken
p2755
(dp2756
g5
I14
sg6
S'sensible'
p2757
sg8
S'O'
sg9
S'JJ'
p2758
sg11
S'sensible'
p2759
sg13
Nsba(ibuftoken
BufToken
p2760
(dp2761
g5
I15
sg6
S'man'
p2762
sg8
S'O'
sg9
S'NN'
p2763
sg11
S'man'
p2764
sg13
Nsba(ibuftoken
BufToken
p2765
(dp2766
g5
I16
sg6
S'.'
sg8
S'O'
sg9
S'.'
sg11
S'.'
sg13
Nsbaa(lp2767
(ibuftoken
BufToken
p2768
(dp2769
g5
I0
sg6
S'Chapter'
p2770
sg8
S'O'
sg9
S'NN'
p2771
sg11
S'chapter'
p2772
sg13
Nsba(ibuftoken
BufToken
p2773
(dp2774
g5
I1
sg6
S'2'
sg8
S'NUMBER'
p2775
sg9
S'CD'
p2776
sg11
S'2'
sg13
Nsba(ibuftoken
BufToken
p2777
(dp2778
g5
I2
sg6
S'.'
sg8
S'O'
sg9
S'.'
sg11
S'.'
sg13
Nsbaa(lp2779
(ibuftoken
BufToken
p2780
(dp2781
g5
I0
sg6
S'So'
p2782
sg8
S'O'
sg9
S'IN'
p2783
sg11
S'so'
p2784
sg13
Nsba(ibuftoken
BufToken
p2785
(dp2786
g5
I1
sg6
S'I'
sg8
S'O'
sg9
S'PRP'
p2787
sg11
S'I'
sg13
Nsba(ibuftoken
BufToken
p2788
(dp2789
g5
I2
sg6
S'lived'
p2790
sg8
S'O'
sg9
S'VBD'
p2791
sg11
S'live'
p2792
sg13
Nsba(ibuftoken
BufToken
p2793
(dp2794
g5
I3
sg6
S'my'
p2795
sg8
S'O'
sg9
S'PRP$'
p2796
sg11
S'my'
p2797
sg13
Nsba(ibuftoken
BufToken
p2798
(dp2799
g5
I4
sg6
S'life'
p2800
sg8
S'O'
sg9
S'NN'
p2801
sg11
S'life'
p2802
sg13
Nsba(ibuftoken
BufToken
p2803
(dp2804
g5
I5
sg6
S'alone'
p2805
sg8
S'O'
sg9
S'RB'
p2806
sg11
S'alone'
p2807
sg13
Nsba(ibuftoken
BufToken
p2808
(dp2809
g5
I6
sg6
S','
sg8
S'O'
sg9
S','
sg11
S','
sg13
Nsba(ibuftoken
BufToken
p2810
(dp2811
g5
I7
sg6
S'without'
p2812
sg8
S'O'
sg9
S'IN'
p2813
sg11
S'without'
p2814
sg13
Nsba(ibuftoken
BufToken
p2815
(dp2816
g5
I8
sg6
S'anyone'
p2817
sg8
S'O'
sg9
S'NN'
p2818
sg11
S'anyone'
p2819
sg13
Nsba(ibuftoken
BufToken
p2820
(dp2821
g5
I9
sg6
S'that'
p2822
sg8
S'O'
sg9
S'IN'
p2823
sg11
S'that'
p2824
sg13
Nsba(ibuftoken
BufToken
p2825
(dp2826
g5
I10
sg6
S'I'
sg8
S'O'
sg9
S'PRP'
p2827
sg11
S'I'
sg13
Nsba(ibuftoken
BufToken
p2828
(dp2829
g5
I11
sg6
S'could'
p2830
sg8
S'O'
sg9
S'MD'
p2831
sg11
S'could'
p2832
sg13
Nsba(ibuftoken
BufToken
p2833
(dp2834
g5
I12
sg6
S'really'
p2835
sg8
S'O'
sg9
S'RB'
p2836
sg11
S'really'
p2837
sg13
Nsba(ibuftoken
BufToken
p2838
(dp2839
g5
I13
sg6
S'talk'
p2840
sg8
S'O'
sg9
S'VB'
p2841
sg11
S'talk'
p2842
sg13
Nsba(ibuftoken
BufToken
p2843
(dp2844
g5
I14
sg6
S'to'
p2845
sg8
S'O'
sg9
S'TO'
p2846
sg11
S'to'
p2847
sg13
Nsba(ibuftoken
BufToken
p2848
(dp2849
g5
I15
sg6
S','
sg8
S'O'
sg9
S','
sg11
S','
sg13
Nsba(ibuftoken
BufToken
p2850
(dp2851
g5
I16
sg6
S'until'
p2852
sg8
S'O'
sg9
S'IN'
p2853
sg11
S'until'
p2854
sg13
Nsba(ibuftoken
BufToken
p2855
(dp2856
g5
I17
sg6
S'I'
sg8
S'O'
sg9
S'PRP'
p2857
sg11
S'I'
sg13
Nsba(ibuftoken
BufToken
p2858
(dp2859
g5
I18
sg6
S'had'
p2860
sg8
S'O'
sg9
S'VBD'
p2861
sg11
S'have'
p2862
sg13
Nsba(ibuftoken
BufToken
p2863
(dp2864
g5
I19
sg6
S'an'
p2865
sg8
S'O'
sg9
S'DT'
p2866
sg11
S'a'
sg13
Nsba(ibuftoken
BufToken
p2867
(dp2868
g5
I20
sg6
S'accident'
p2869
sg8
S'O'
sg9
S'NN'
p2870
sg11
S'accident'
p2871
sg13
Nsba(ibuftoken
BufToken
p2872
(dp2873
g5
I21
sg6
S'with'
p2874
sg8
S'O'
sg9
S'IN'
p2875
sg11
S'with'
p2876
sg13
Nsba(ibuftoken
BufToken
p2877
(dp2878
g5
I22
sg6
S'my'
p2879
sg8
S'O'
sg9
S'PRP$'
p2880
sg11
S'my'
p2881
sg13
Nsba(ibuftoken
BufToken
p2882
(dp2883
g5
I23
sg6
S'plane'
p2884
sg8
S'O'
sg9
S'NN'
p2885
sg11
S'plane'
p2886
sg13
Nsba(ibuftoken
BufToken
p2887
(dp2888
g5
I24
sg6
S'in'
p2889
sg8
S'O'
sg9
S'IN'
p2890
sg11
S'in'
p2891
sg13
Nsba(ibuftoken
BufToken
p2892
(dp2893
g5
I25
sg6
S'the'
p2894
sg8
S'O'
sg9
S'DT'
p2895
sg11
S'the'
p2896
sg13
Nsba(ibuftoken
BufToken
p2897
(dp2898
g5
I26
sg6
S'Desert_of_Sahara'
p2899
sg8
S'LOCATION'
p2900
sg9
S'NNP'
p2901
sg11
S'Sahara'
p2902
sg13
Nsba(ibuftoken
BufToken
p2903
(dp2904
g5
I27
sg6
S','
sg8
S'O'
sg9
S','
sg11
S','
sg13
Nsba(ibuftoken
BufToken
p2905
(dp2906
g5
I28
sg6
S'six'
p2907
sg8
S'DATE'
p2908
sg9
S'CD'
p2909
sg11
S'six'
p2910
sg13
Nsba(ibuftoken
BufToken
p2911
(dp2912
g5
I29
sg6
S'years'
p2913
sg8
S'DATE'
p2914
sg9
S'NNS'
p2915
sg11
S'year'
p2916
sg13
Nsba(ibuftoken
BufToken
p2917
(dp2918
g5
I30
sg6
S'ago'
p2919
sg8
S'DATE'
p2920
sg9
S'RB'
p2921
sg11
S'ago'
p2922
sg13
Nsba(ibuftoken
BufToken
p2923
(dp2924
g5
I31
sg6
S'.'
sg8
S'O'
sg9
S'.'
sg11
S'.'
sg13
Nsbaa(lp2925
(ibuftoken
BufToken
p2926
(dp2927
g5
I0
sg6
S'Something'
p2928
sg8
S'O'
sg9
S'NN'
p2929
sg11
S'something'
p2930
sg13
Nsba(ibuftoken
BufToken
p2931
(dp2932
g5
I1
sg6
S'was'
p2933
sg8
S'O'
sg9
S'VBD'
p2934
sg11
S'be'
p2935
sg13
Nsba(ibuftoken
BufToken
p2936
(dp2937
g5
I2
sg6
S'broken'
p2938
sg8
S'O'
sg9
S'VBN'
p2939
sg11
S'break'
p2940
sg13
Nsba(ibuftoken
BufToken
p2941
(dp2942
g5
I3
sg6
S'in'
p2943
sg8
S'O'
sg9
S'IN'
p2944
sg11
S'in'
p2945
sg13
Nsba(ibuftoken
BufToken
p2946
(dp2947
g5
I4
sg6
S'my'
p2948
sg8
S'O'
sg9
S'PRP$'
p2949
sg11
S'my'
p2950
sg13
Nsba(ibuftoken
BufToken
p2951
(dp2952
g5
I5
sg6
S'engine'
p2953
sg8
S'O'
sg9
S'NN'
p2954
sg11
S'engine'
p2955
sg13
Nsba(ibuftoken
BufToken
p2956
(dp2957
g5
I6
sg6
S'.'
sg8
S'O'
sg9
S'.'
sg11
S'.'
sg13
Nsbaa(lp2958
(ibuftoken
BufToken
p2959
(dp2960
g5
I0
sg6
S'And'
p2961
sg8
S'O'
sg9
S'CC'
p2962
sg11
S'and'
p2963
sg13
Nsba(ibuftoken
BufToken
p2964
(dp2965
g5
I1
sg6
S'as'
p2966
sg8
S'O'
sg9
S'IN'
p2967
sg11
S'as'
p2968
sg13
Nsba(ibuftoken
BufToken
p2969
(dp2970
g5
I2
sg6
S'I'
sg8
S'O'
sg9
S'PRP'
p2971
sg11
S'I'
sg13
Nsba(ibuftoken
BufToken
p2972
(dp2973
g5
I3
sg6
S'had'
p2974
sg8
S'O'
sg9
S'VBD'
p2975
sg11
S'have'
p2976
sg13
Nsba(ibuftoken
BufToken
p2977
(dp2978
g5
I4
sg6
S'with'
p2979
sg8
S'O'
sg9
S'IN'
p2980
sg11
S'with'
p2981
sg13
Nsba(ibuftoken
BufToken
p2982
(dp2983
g5
I5
sg6
S'me'
p2984
sg8
S'O'
sg9
S'PRP'
p2985
sg11
S'I'
sg13
Nsba(ibuftoken
BufToken
p2986
(dp2987
g5
I6
sg6
S'neither'
p2988
sg8
S'O'
sg9
S'CC'
p2989
sg11
S'neither'
p2990
sg13
Nsba(ibuftoken
BufToken
p2991
(dp2992
g5
I7
sg6
S'a'
sg8
S'O'
sg9
S'DT'
p2993
sg11
S'a'
sg13
Nsba(ibuftoken
BufToken
p2994
(dp2995
g5
I8
sg6
S'mechanic'
p2996
sg8
S'O'
sg9
S'NN'
p2997
sg11
S'mechanic'
p2998
sg13
Nsba(ibuftoken
BufToken
p2999
(dp3000
g5
I9
sg6
S'nor'
p3001
sg8
S'O'
sg9
S'CC'
p3002
sg11
S'nor'
p3003
sg13
Nsba(ibuftoken
BufToken
p3004
(dp3005
g5
I10
sg6
S'any'
p3006
sg8
S'O'
sg9
S'DT'
p3007
sg11
S'any'
p3008
sg13
Nsba(ibuftoken
BufToken
p3009
(dp3010
g5
I11
sg6
S'passengers'
p3011
sg8
S'O'
sg9
S'NNS'
p3012
sg11
S'passenger'
p3013
sg13
Nsba(ibuftoken
BufToken
p3014
(dp3015
g5
I12
sg6
S','
sg8
S'O'
sg9
S','
sg11
S','
sg13
Nsba(ibuftoken
BufToken
p3016
(dp3017
g5
I13
sg6
S'I'
sg8
S'O'
sg9
S'PRP'
p3018
sg11
S'I'
sg13
Nsba(ibuftoken
BufToken
p3019
(dp3020
g5
I14
sg6
S'set'
p3021
sg8
S'O'
sg9
S'VBD'
p3022
sg11
S'set'
p3023
sg13
Nsba(ibuftoken
BufToken
p3024
(dp3025
g5
I15
sg6
S'myself'
p3026
sg8
S'O'
sg9
S'PRP'
p3027
sg11
S'myself'
p3028
sg13
Nsba(ibuftoken
BufToken
p3029
(dp3030
g5
I16
sg6
S'to'
p3031
sg8
S'O'
sg9
S'TO'
p3032
sg11
S'to'
p3033
sg13
Nsba(ibuftoken
BufToken
p3034
(dp3035
g5
I17
sg6
S'attempt'
p3036
sg8
S'O'
sg9
S'VB'
p3037
sg11
S'attempt'
p3038
sg13
Nsba(ibuftoken
BufToken
p3039
(dp3040
g5
I18
sg6
S'the'
p3041
sg8
S'O'
sg9
S'DT'
p3042
sg11
S'the'
p3043
sg13
Nsba(ibuftoken
BufToken
p3044
(dp3045
g5
I19
sg6
S'difficult'
p3046
sg8
S'O'
sg9
S'JJ'
p3047
sg11
S'difficult'
p3048
sg13
Nsba(ibuftoken
BufToken
p3049
(dp3050
g5
I20
sg6
S'repairs'
p3051
sg8
S'O'
sg9
S'NNS'
p3052
sg11
S'repair'
p3053
sg13
Nsba(ibuftoken
BufToken
p3054
(dp3055
g5
I21
sg6
S'all'
p3056
sg8
S'O'
sg9
S'DT'
p3057
sg11
S'all'
p3058
sg13
Nsba(ibuftoken
BufToken
p3059
(dp3060
g5
I22
sg6
S'alone'
p3061
sg8
S'O'
sg9
S'RB'
p3062
sg11
S'alone'
p3063
sg13
Nsba(ibuftoken
BufToken
p3064
(dp3065
g5
I23
sg6
S'.'
sg8
S'O'
sg9
S'.'
sg11
S'.'
sg13
Nsbaa(lp3066
(ibuftoken
BufToken
p3067
(dp3068
g5
I0
sg6
S'It'
p3069
sg8
S'O'
sg9
S'PRP'
p3070
sg11
S'it'
p3071
sg13
Nsba(ibuftoken
BufToken
p3072
(dp3073
g5
I1
sg6
S'was'
p3074
sg8
S'O'
sg9
S'VBD'
p3075
sg11
S'be'
p3076
sg13
Nsba(ibuftoken
BufToken
p3077
(dp3078
g5
I2
sg6
S'a'
sg8
S'O'
sg9
S'DT'
p3079
sg11
S'a'
sg13
Nsba(ibuftoken
BufToken
p3080
(dp3081
g5
I3
sg6
S'question'
p3082
sg8
S'O'
sg9
S'NN'
p3083
sg11
S'question'
p3084
sg13
Nsba(ibuftoken
BufToken
p3085
(dp3086
g5
I4
sg6
S'of'
p3087
sg8
S'O'
sg9
S'IN'
p3088
sg11
S'of'
p3089
sg13
Nsba(ibuftoken
BufToken
p3090
(dp3091
g5
I5
sg6
S'life'
p3092
sg8
S'O'
sg9
S'NN'
p3093
sg11
S'life'
p3094
sg13
Nsba(ibuftoken
BufToken
p3095
(dp3096
g5
I6
sg6
S'or'
p3097
sg8
S'O'
sg9
S'CC'
p3098
sg11
S'or'
p3099
sg13
Nsba(ibuftoken
BufToken
p3100
(dp3101
g5
I7
sg6
S'death'
p3102
sg8
S'O'
sg9
S'NN'
p3103
sg11
S'death'
p3104
sg13
Nsba(ibuftoken
BufToken
p3105
(dp3106
g5
I8
sg6
S'for'
p3107
sg8
S'O'
sg9
S'IN'
p3108
sg11
S'for'
p3109
sg13
Nsba(ibuftoken
BufToken
p3110
(dp3111
g5
I9
sg6
S'me'
p3112
sg8
S'O'
sg9
S'PRP'
p3113
sg11
S'I'
sg13
Nsba(ibuftoken
BufToken
p3114
(dp3115
g5
I10
sg6
S':'
sg8
S'O'
sg9
S':'
sg11
S':'
sg13
Nsba(ibuftoken
BufToken
p3116
(dp3117
g5
I11
sg6
S'I'
sg8
S'O'
sg9
S'PRP'
p3118
sg11
S'I'
sg13
Nsba(ibuftoken
BufToken
p3119
(dp3120
g5
I12
sg6
S'had'
p3121
sg8
S'O'
sg9
S'VBD'
p3122
sg11
S'have'
p3123
sg13
Nsba(ibuftoken
BufToken
p3124
(dp3125
g5
I13
sg6
S'scarcely'
p3126
sg8
S'O'
sg9
S'RB'
p3127
sg11
S'scarcely'
p3128
sg13
Nsba(ibuftoken
BufToken
p3129
(dp3130
g5
I14
sg6
S'enough'
p3131
sg8
S'O'
sg9
S'JJ'
p3132
sg11
S'enough'
p3133
sg13
Nsba(ibuftoken
BufToken
p3134
(dp3135
g5
I15
sg6
S'drinking'
p3136
sg8
S'O'
sg9
S'NN'
p3137
sg11
S'drinking'
p3138
sg13
Nsba(ibuftoken
BufToken
p3139
(dp3140
g5
I16
sg6
S'water'
p3141
sg8
S'O'
sg9
S'NN'
p3142
sg11
S'water'
p3143
sg13
Nsba(ibuftoken
BufToken
p3144
(dp3145
g5
I17
sg6
S'to'
p3146
sg8
S'O'
sg9
S'TO'
p3147
sg11
S'to'
p3148
sg13
Nsba(ibuftoken
BufToken
p3149
(dp3150
g5
I18
sg6
S'last'
p3151
sg8
S'DATE'
p3152
sg9
S'VB'
p3153
sg11
S'last'
p3154
sg13
Nsba(ibuftoken
BufToken
p3155
(dp3156
g5
I19
sg6
S'a'
sg8
S'DATE'
p3157
sg9
S'DT'
p3158
sg11
S'a'
sg13
Nsba(ibuftoken
BufToken
p3159
(dp3160
g5
I20
sg6
S'week'
p3161
sg8
S'DATE'
p3162
sg9
S'NN'
p3163
sg11
S'week'
p3164
sg13
Nsba(ibuftoken
BufToken
p3165
(dp3166
g5
I21
sg6
S'.'
sg8
S'O'
sg9
S'.'
sg11
S'.'
sg13
Nsbaa(lp3167
(ibuftoken
BufToken
p3168
(dp3169
g5
I0
sg6
S'The'
p3170
sg8
S'O'
sg9
S'DT'
p3171
sg11
S'the'
p3172
sg13
Nsba(ibuftoken
BufToken
p3173
(dp3174
g5
I1
sg6
S'1'
sg8
S'ORDINAL'
p3175
sg9
S'JJ'
p3176
sg11
S'first'
p3177
sg13
Nsba(ibuftoken
BufToken
p3178
(dp3179
g5
I2
sg6
S'night'
p3180
sg8
S'TIME'
p3181
sg9
S'NN'
p3182
sg11
S'night'
p3183
sg13
Nsba(ibuftoken
BufToken
p3184
(dp3185
g5
I3
sg6
S','
sg8
S'O'
sg9
S','
sg11
S','
sg13
Nsba(ibuftoken
BufToken
p3186
(dp3187
g5
I4
sg6
S'then'
p3188
sg8
S'O'
sg9
S'RB'
p3189
sg11
S'then'
p3190
sg13
Nsba(ibuftoken
BufToken
p3191
(dp3192
g5
I5
sg6
S','
sg8
S'O'
sg9
S','
sg11
S','
sg13
Nsba(ibuftoken
BufToken
p3193
(dp3194
g5
I6
sg6
S'I'
sg8
S'O'
sg9
S'PRP'
p3195
sg11
S'I'
sg13
Nsba(ibuftoken
BufToken
p3196
(dp3197
g5
I7
sg6
S'went'
p3198
sg8
S'O'
sg9
S'VBD'
p3199
sg11
S'go'
p3200
sg13
Nsba(ibuftoken
BufToken
p3201
(dp3202
g5
I8
sg6
S'to'
p3203
sg8
S'O'
sg9
S'TO'
p3204
sg11
S'to'
p3205
sg13
Nsba(ibuftoken
BufToken
p3206
(dp3207
g5
I9
sg6
S'sleep'
p3208
sg8
S'O'
sg9
S'VB'
p3209
sg11
S'sleep'
p3210
sg13
Nsba(ibuftoken
BufToken
p3211
(dp3212
g5
I10
sg6
S'on'
p3213
sg8
S'O'
sg9
S'IN'
p3214
sg11
S'on'
p3215
sg13
Nsba(ibuftoken
BufToken
p3216
(dp3217
g5
I11
sg6
S'the'
p3218
sg8
S'O'
sg9
S'DT'
p3219
sg11
S'the'
p3220
sg13
Nsba(ibuftoken
BufToken
p3221
(dp3222
g5
I12
sg6
S'sand'
p3223
sg8
S'O'
sg9
S'NN'
p3224
sg11
S'sand'
p3225
sg13
Nsba(ibuftoken
BufToken
p3226
(dp3227
g5
I13
sg6
S','
sg8
S'O'
sg9
S','
sg11
S','
sg13
Nsba(ibuftoken
BufToken
p3228
(dp3229
g5
I14
sg6
S'a'
sg8
S'O'
sg9
S'DT'
p3230
sg11
S'a'
sg13
Nsba(ibuftoken
BufToken
p3231
(dp3232
g5
I15
sg6
S'1000'
p3233
sg8
S'NUMBER'
p3234
sg9
S'CD'
p3235
sg11
S'thousand'
p3236
sg13
Nsba(ibuftoken
BufToken
p3237
(dp3238
g5
I16
sg6
S'miles'
p3239
sg8
S'O'
sg9
S'NNS'
p3240
sg11
S'mile'
p3241
sg13
Nsba(ibuftoken
BufToken
p3242
(dp3243
g5
I17
sg6
S'from'
p3244
sg8
S'O'
sg9
S'IN'
p3245
sg11
S'from'
p3246
sg13
Nsba(ibuftoken
BufToken
p3247
(dp3248
g5
I18
sg6
S'any'
p3249
sg8
S'O'
sg9
S'DT'
p3250
sg11
S'any'
p3251
sg13
Nsba(ibuftoken
BufToken
p3252
(dp3253
g5
I19
sg6
S'human'
p3254
sg8
S'O'
sg9
S'JJ'
p3255
sg11
S'human'
p3256
sg13
Nsba(ibuftoken
BufToken
p3257
(dp3258
g5
I20
sg6
S'habitation'
p3259
sg8
S'O'
sg9
S'NN'
p3260
sg11
S'habitation'
p3261
sg13
Nsba(ibuftoken
BufToken
p3262
(dp3263
g5
I21
sg6
S'.'
sg8
S'O'
sg9
S'.'
sg11
S'.'
sg13
Nsbaa(lp3264
(ibuftoken
BufToken
p3265
(dp3266
g5
I0
sg6
S'I'
sg8
S'O'
sg9
S'PRP'
p3267
sg11
S'I'
sg13
Nsba(ibuftoken
BufToken
p3268
(dp3269
g5
I1
sg6
S'was'
p3270
sg8
S'O'
sg9
S'VBD'
p3271
sg11
S'be'
p3272
sg13
Nsba(ibuftoken
BufToken
p3273
(dp3274
g5
I2
sg6
S'more'
p3275
sg8
S'O'
sg9
S'RBR'
p3276
sg11
S'more'
p3277
sg13
Nsba(ibuftoken
BufToken
p3278
(dp3279
g5
I3
sg6
S'isolated'
p3280
sg8
S'O'
sg9
S'VBN'
p3281
sg11
S'isolate'
p3282
sg13
Nsba(ibuftoken
BufToken
p3283
(dp3284
g5
I4
sg6
S'than'
p3285
sg8
S'O'
sg9
S'IN'
p3286
sg11
S'than'
p3287
sg13
Nsba(ibuftoken
BufToken
p3288
(dp3289
g5
I5
sg6
S'a'
sg8
S'O'
sg9
S'DT'
p3290
sg11
S'a'
sg13
Nsba(ibuftoken
BufToken
p3291
(dp3292
g5
I6
sg6
S'shipwrecked'
p3293
sg8
S'O'
sg9
S'JJ'
p3294
sg11
S'shipwrecked'
p3295
sg13
Nsba(ibuftoken
BufToken
p3296
(dp3297
g5
I7
sg6
S'sailor'
p3298
sg8
S'O'
sg9
S'NN'
p3299
sg11
S'sailor'
p3300
sg13
Nsba(ibuftoken
BufToken
p3301
(dp3302
g5
I8
sg6
S'on'
p3303
sg8
S'O'
sg9
S'IN'
p3304
sg11
S'on'
p3305
sg13
Nsba(ibuftoken
BufToken
p3306
(dp3307
g5
I9
sg6
S'a'
sg8
S'O'
sg9
S'DT'
p3308
sg11
S'a'
sg13
Nsba(ibuftoken
BufToken
p3309
(dp3310
g5
I10
sg6
S'raft'
p3311
sg8
S'O'
sg9
S'NN'
p3312
sg11
S'raft'
p3313
sg13
Nsba(ibuftoken
BufToken
p3314
(dp3315
g5
I11
sg6
S'in'
p3316
sg8
S'O'
sg9
S'IN'
p3317
sg11
S'in'
p3318
sg13
Nsba(ibuftoken
BufToken
p3319
(dp3320
g5
I12
sg6
S'the'
p3321
sg8
S'O'
sg9
S'DT'
p3322
sg11
S'the'
p3323
sg13
Nsba(ibuftoken
BufToken
p3324
(dp3325
g5
I13
sg6
S'middle'
p3326
sg8
S'O'
sg9
S'NN'
p3327
sg11
S'middle'
p3328
sg13
Nsba(ibuftoken
BufToken
p3329
(dp3330
g5
I14
sg6
S'of'
p3331
sg8
S'O'
sg9
S'IN'
p3332
sg11
S'of'
p3333
sg13
Nsba(ibuftoken
BufToken
p3334
(dp3335
g5
I15
sg6
S'the'
p3336
sg8
S'O'
sg9
S'DT'
p3337
sg11
S'the'
p3338
sg13
Nsba(ibuftoken
BufToken
p3339
(dp3340
g5
I16
sg6
S'ocean'
p3341
sg8
S'O'
sg9
S'NN'
p3342
sg11
S'ocean'
p3343
sg13
Nsba(ibuftoken
BufToken
p3344
(dp3345
g5
I17
sg6
S'.'
sg8
S'O'
sg9
S'.'
sg11
S'.'
sg13
Nsbaa(lp3346
(ibuftoken
BufToken
p3347
(dp3348
g5
I0
sg6
S'Thus'
p3349
sg8
S'O'
sg9
S'RB'
p3350
sg11
S'thus'
p3351
sg13
Nsba(ibuftoken
BufToken
p3352
(dp3353
g5
I1
sg6
S'you'
p3354
sg8
S'O'
sg9
S'PRP'
p3355
sg11
S'you'
p3356
sg13
Nsba(ibuftoken
BufToken
p3357
(dp3358
g5
I2
sg6
S'can'
p3359
sg8
S'O'
sg9
S'MD'
p3360
sg11
S'can'
p3361
sg13
Nsba(ibuftoken
BufToken
p3362
(dp3363
g5
I3
sg6
S'imagine'
p3364
sg8
S'O'
sg9
S'VB'
p3365
sg11
S'imagine'
p3366
sg13
Nsba(ibuftoken
BufToken
p3367
(dp3368
g5
I4
sg6
S'my'
p3369
sg8
S'O'
sg9
S'PRP$'
p3370
sg11
S'my'
p3371
sg13
Nsba(ibuftoken
BufToken
p3372
(dp3373
g5
I5
sg6
S'amazement'
p3374
sg8
S'O'
sg9
S'NN'
p3375
sg11
S'amazement'
p3376
sg13
Nsba(ibuftoken
BufToken
p3377
(dp3378
g5
I6
sg6
S','
sg8
S'O'
sg9
S','
sg11
S','
sg13
Nsba(ibuftoken
BufToken
p3379
(dp3380
g5
I7
sg6
S'at'
p3381
sg8
S'O'
sg9
S'IN'
p3382
sg11
S'at'
p3383
sg13
Nsba(ibuftoken
BufToken
p3384
(dp3385
g5
I8
sg6
S'sunrise'
p3386
sg8
S'O'
sg9
S'NN'
p3387
sg11
S'sunrise'
p3388
sg13
Nsba(ibuftoken
BufToken
p3389
(dp3390
g5
I9
sg6
S','
sg8
S'O'
sg9
S','
sg11
S','
sg13
Nsba(ibuftoken
BufToken
p3391
(dp3392
g5
I10
sg6
S'when'
p3393
sg8
S'O'
sg9
S'WRB'
p3394
sg11
S'when'
p3395
sg13
Nsba(ibuftoken
BufToken
p3396
(dp3397
g5
I11
sg6
S'I'
sg8
S'O'
sg9
S'PRP'
p3398
sg11
S'I'
sg13
Nsba(ibuftoken
BufToken
p3399
(dp3400
g5
I12
sg6
S'was'
p3401
sg8
S'O'
sg9
S'VBD'
p3402
sg11
S'be'
p3403
sg13
Nsba(ibuftoken
BufToken
p3404
(dp3405
g5
I13
sg6
S'awakened'
p3406
sg8
S'O'
sg9
S'VBN'
p3407
sg11
S'awaken'
p3408
sg13
Nsba(ibuftoken
BufToken
p3409
(dp3410
g5
I14
sg6
S'by'
p3411
sg8
S'O'
sg9
S'IN'
p3412
sg11
S'by'
p3413
sg13
Nsba(ibuftoken
BufToken
p3414
(dp3415
g5
I15
sg6
S'an'
p3416
sg8
S'O'
sg9
S'DT'
p3417
sg11
S'a'
sg13
Nsba(ibuftoken
BufToken
p3418
(dp3419
g5
I16
sg6
S'odd'
p3420
sg8
S'O'
sg9
S'JJ'
p3421
sg11
S'odd'
p3422
sg13
Nsba(ibuftoken
BufToken
p3423
(dp3424
g5
I17
sg6
S'little'
p3425
sg8
S'O'
sg9
S'JJ'
p3426
sg11
S'little'
p3427
sg13
Nsba(ibuftoken
BufToken
p3428
(dp3429
g5
I18
sg6
S'voice'
p3430
sg8
S'O'
sg9
S'NN'
p3431
sg11
S'voice'
p3432
sg13
Nsba(ibuftoken
BufToken
p3433
(dp3434
g5
I19
sg6
S'.'
sg8
S'O'
sg9
S'.'
sg11
S'.'
sg13
Nsbaa(lp3435
(ibuftoken
BufToken
p3436
(dp3437
g5
I0
sg6
S'It'
p3438
sg8
S'O'
sg9
S'PRP'
p3439
sg11
S'it'
p3440
sg13
Nsba(ibuftoken
BufToken
p3441
(dp3442
g5
I1
sg6
S'said'
p3443
sg8
S'O'
sg9
S'VBD'
p3444
sg11
S'say'
p3445
sg13
Nsba(ibuftoken
BufToken
p3446
(dp3447
g5
I2
sg6
S':'
sg8
S'O'
sg9
S':'
sg11
S':'
sg13
Nsba(ibuftoken
BufToken
p3448
(dp3449
g5
I3
sg6
S'"'
sg8
S'O'
sg9
S'``'
p3450
sg11
S'"'
sg13
Nsba(ibuftoken
BufToken
p3451
(dp3452
g5
I4
sg6
S'If'
p3453
sg8
S'O'
sg9
S'IN'
p3454
sg11
S'if'
p3455
sg13
Nsba(ibuftoken
BufToken
p3456
(dp3457
g5
I5
sg6
S'you'
p3458
sg8
S'O'
sg9
S'PRP'
p3459
sg11
S'you'
p3460
sg13
Nsba(ibuftoken
BufToken
p3461
(dp3462
g5
I6
sg6
S'please'
p3463
sg8
S'O'
sg9
S'VB'
p3464
sg11
S'please'
p3465
sg13
Nsba(ibuftoken
BufToken
p3466
(dp3467
g5
I7
sg6
S'--'
p3468
sg8
S'O'
sg9
S':'
sg11
S'--'
p3469
sg13
Nsba(ibuftoken
BufToken
p3470
(dp3471
g5
I8
sg6
S'draw'
p3472
sg8
S'O'
sg9
S'VB'
p3473
sg11
S'draw'
p3474
sg13
Nsba(ibuftoken
BufToken
p3475
(dp3476
g5
I9
sg6
S'me'
p3477
sg8
S'O'
sg9
S'PRP'
p3478
sg11
S'I'
sg13
Nsba(ibuftoken
BufToken
p3479
(dp3480
g5
I10
sg6
S'a'
sg8
S'O'
sg9
S'DT'
p3481
sg11
S'a'
sg13
Nsba(ibuftoken
BufToken
p3482
(dp3483
g5
I11
sg6
S'sheep'
p3484
sg8
S'O'
sg9
S'NN'
p3485
sg11
S'sheep'
p3486
sg13
Nsba(ibuftoken
BufToken
p3487
(dp3488
g5
I12
sg6
S'!'
sg8
S'O'
sg9
S'.'
sg11
S'!'
sg13
Nsba(ibuftoken
BufToken
p3489
(dp3490
g5
I13
sg6
S'\xe2\x80\x9d'
p3491
sg8
S'O'
sg9
S'SYM'
p3492
sg11
S'\xe2\x80\x9d'
p3493
sg13
Nsbaa(lp3494
(ibuftoken
BufToken
p3495
(dp3496
g5
I0
sg6
S'"'
sg8
S'O'
sg9
S'``'
p3497
sg11
S'"'
sg13
Nsba(ibuftoken
BufToken
p3498
(dp3499
g5
I1
sg6
S'What'
p3500
sg8
S'O'
sg9
S'WP'
p3501
sg11
S'what'
p3502
sg13
Nsba(ibuftoken
BufToken
p3503
(dp3504
g5
I2
sg6
S'!'
sg8
S'O'
sg9
S'.'
sg11
S'!'
sg13
Nsba(ibuftoken
BufToken
p3505
(dp3506
g5
I3
sg6
S'\xe2\x80\x9d'
p3507
sg8
S'O'
sg9
S'SYM'
p3508
sg11
S'\xe2\x80\x9d'
p3509
sg13
Nsbaa(lp3510
(ibuftoken
BufToken
p3511
(dp3512
g5
I0
sg6
S'"'
sg8
S'O'
sg9
S'``'
p3513
sg11
S'"'
sg13
Nsba(ibuftoken
BufToken
p3514
(dp3515
g5
I1
sg6
S'Draw'
p3516
sg8
S'O'
sg9
S'VB'
p3517
sg11
S'draw'
p3518
sg13
Nsba(ibuftoken
BufToken
p3519
(dp3520
g5
I2
sg6
S'me'
p3521
sg8
S'O'
sg9
S'PRP'
p3522
sg11
S'I'
sg13
Nsba(ibuftoken
BufToken
p3523
(dp3524
g5
I3
sg6
S'a'
sg8
S'O'
sg9
S'DT'
p3525
sg11
S'a'
sg13
Nsba(ibuftoken
BufToken
p3526
(dp3527
g5
I4
sg6
S'sheep'
p3528
sg8
S'O'
sg9
S'NN'
p3529
sg11
S'sheep'
p3530
sg13
Nsba(ibuftoken
BufToken
p3531
(dp3532
g5
I5
sg6
S'!'
sg8
S'O'
sg9
S'.'
sg11
S'!'
sg13
Nsba(ibuftoken
BufToken
p3533
(dp3534
g5
I6
sg6
S'\xe2\x80\x9d'
p3535
sg8
S'O'
sg9
S'SYM'
p3536
sg11
S'\xe2\x80\x9d'
p3537
sg13
Nsbaa(lp3538
(ibuftoken
BufToken
p3539
(dp3540
g5
I0
sg6
S'I'
sg8
S'O'
sg9
S'PRP'
p3541
sg11
S'I'
sg13
Nsba(ibuftoken
BufToken
p3542
(dp3543
g5
I1
sg6
S'jumped'
p3544
sg8
S'O'
sg9
S'VBD'
p3545
sg11
S'jump'
p3546
sg13
Nsba(ibuftoken
BufToken
p3547
(dp3548
g5
I2
sg6
S'to'
p3549
sg8
S'O'
sg9
S'TO'
p3550
sg11
S'to'
p3551
sg13
Nsba(ibuftoken
BufToken
p3552
(dp3553
g5
I3
sg6
S'my'
p3554
sg8
S'O'
sg9
S'PRP$'
p3555
sg11
S'my'
p3556
sg13
Nsba(ibuftoken
BufToken
p3557
(dp3558
g5
I4
sg6
S'feet'
p3559
sg8
S'O'
sg9
S'NNS'
p3560
sg11
S'foot'
p3561
sg13
Nsba(ibuftoken
BufToken
p3562
(dp3563
g5
I5
sg6
S','
sg8
S'O'
sg9
S','
sg11
S','
sg13
Nsba(ibuftoken
BufToken
p3564
(dp3565
g5
I6
sg6
S'completely'
p3566
sg8
S'O'
sg9
S'RB'
p3567
sg11
S'completely'
p3568
sg13
Nsba(ibuftoken
BufToken
p3569
(dp3570
g5
I7
sg6
S'thunderstruck'
p3571
sg8
S'O'
sg9
S'RB'
p3572
sg11
S'thunderstruck'
p3573
sg13
Nsba(ibuftoken
BufToken
p3574
(dp3575
g5
I8
sg6
S'.'
sg8
S'O'
sg9
S'.'
sg11
S'.'
sg13
Nsbaa(lp3576
(ibuftoken
BufToken
p3577
(dp3578
g5
I0
sg6
S'I'
sg8
S'O'
sg9
S'PRP'
p3579
sg11
S'I'
sg13
Nsba(ibuftoken
BufToken
p3580
(dp3581
g5
I1
sg6
S'blinked'
p3582
sg8
S'O'
sg9
S'VBD'
p3583
sg11
S'blink'
p3584
sg13
Nsba(ibuftoken
BufToken
p3585
(dp3586
g5
I2
sg6
S'my'
p3587
sg8
S'O'
sg9
S'PRP$'
p3588
sg11
S'my'
p3589
sg13
Nsba(ibuftoken
BufToken
p3590
(dp3591
g5
I3
sg6
S'eyes'
p3592
sg8
S'O'
sg9
S'NNS'
p3593
sg11
S'eye'
p3594
sg13
Nsba(ibuftoken
BufToken
p3595
(dp3596
g5
I4
sg6
S'hard'
p3597
sg8
S'O'
sg9
S'RB'
p3598
sg11
S'hard'
p3599
sg13
Nsba(ibuftoken
BufToken
p3600
(dp3601
g5
I5
sg6
S'.'
sg8
S'O'
sg9
S'.'
sg11
S'.'
sg13
Nsbaa(lp3602
(ibuftoken
BufToken
p3603
(dp3604
g5
I0
sg6
S'I'
sg8
S'O'
sg9
S'PRP'
p3605
sg11
S'I'
sg13
Nsba(ibuftoken
BufToken
p3606
(dp3607
g5
I1
sg6
S'looked'
p3608
sg8
S'O'
sg9
S'VBD'
p3609
sg11
S'look'
p3610
sg13
Nsba(ibuftoken
BufToken
p3611
(dp3612
g5
I2
sg6
S'carefully'
p3613
sg8
S'O'
sg9
S'RB'
p3614
sg11
S'carefully'
p3615
sg13
Nsba(ibuftoken
BufToken
p3616
(dp3617
g5
I3
sg6
S'all'
p3618
sg8
S'O'
sg9
S'DT'
p3619
sg11
S'all'
p3620
sg13
Nsba(ibuftoken
BufToken
p3621
(dp3622
g5
I4
sg6
S'around'
p3623
sg8
S'O'
sg9
S'IN'
p3624
sg11
S'around'
p3625
sg13
Nsba(ibuftoken
BufToken
p3626
(dp3627
g5
I5
sg6
S'me'
p3628
sg8
S'O'
sg9
S'PRP'
p3629
sg11
S'I'
sg13
Nsba(ibuftoken
BufToken
p3630
(dp3631
g5
I6
sg6
S'.'
sg8
S'O'
sg9
S'.'
sg11
S'.'
sg13
Nsbaa(lp3632
(ibuftoken
BufToken
p3633
(dp3634
g5
I0
sg6
S'And'
p3635
sg8
S'O'
sg9
S'CC'
p3636
sg11
S'and'
p3637
sg13
Nsba(ibuftoken
BufToken
p3638
(dp3639
g5
I1
sg6
S'I'
sg8
S'O'
sg9
S'PRP'
p3640
sg11
S'I'
sg13
Nsba(ibuftoken
BufToken
p3641
(dp3642
g5
I2
sg6
S'saw'
p3643
sg8
S'O'
sg9
S'VBD'
p3644
sg11
S'see'
p3645
sg13
Nsba(ibuftoken
BufToken
p3646
(dp3647
g5
I3
sg6
S'a'
sg8
S'O'
sg9
S'DT'
p3648
sg11
S'a'
sg13
Nsba(ibuftoken
BufToken
p3649
(dp3650
g5
I4
sg6
S'most'
p3651
sg8
S'O'
sg9
S'RBS'
p3652
sg11
S'most'
p3653
sg13
Nsba(ibuftoken
BufToken
p3654
(dp3655
g5
I5
sg6
S'extraordinary'
p3656
sg8
S'O'
sg9
S'JJ'
p3657
sg11
S'extraordinary'
p3658
sg13
Nsba(ibuftoken
BufToken
p3659
(dp3660
g5
I6
sg6
S'small'
p3661
sg8
S'O'
sg9
S'JJ'
p3662
sg11
S'small'
p3663
sg13
Nsba(ibuftoken
BufToken
p3664
(dp3665
g5
I7
sg6
S'person'
p3666
sg8
S'O'
sg9
S'NN'
p3667
sg11
S'person'
p3668
sg13
Nsba(ibuftoken
BufToken
p3669
(dp3670
g5
I8
sg6
S','
sg8
S'O'
sg9
S','
sg11
S','
sg13
Nsba(ibuftoken
BufToken
p3671
(dp3672
g5
I9
sg6
S'who'
p3673
sg8
S'O'
sg9
S'WP'
p3674
sg11
S'who'
p3675
sg13
Nsba(ibuftoken
BufToken
p3676
(dp3677
g5
I10
sg6
S'stood'
p3678
sg8
S'O'
sg9
S'VBD'
p3679
sg11
S'stand'
p3680
sg13
Nsba(ibuftoken
BufToken
p3681
(dp3682
g5
I11
sg6
S'there'
p3683
sg8
S'O'
sg9
S'EX'
p3684
sg11
S'there'
p3685
sg13
Nsba(ibuftoken
BufToken
p3686
(dp3687
g5
I12
sg6
S'examining'
p3688
sg8
S'O'
sg9
S'VBG'
p3689
sg11
S'examine'
p3690
sg13
Nsba(ibuftoken
BufToken
p3691
(dp3692
g5
I13
sg6
S'me'
p3693
sg8
S'O'
sg9
S'PRP'
p3694
sg11
S'I'
sg13
Nsba(ibuftoken
BufToken
p3695
(dp3696
g5
I14
sg6
S'with'
p3697
sg8
S'O'
sg9
S'IN'
p3698
sg11
S'with'
p3699
sg13
Nsba(ibuftoken
BufToken
p3700
(dp3701
g5
I15
sg6
S'great'
p3702
sg8
S'O'
sg9
S'JJ'
p3703
sg11
S'great'
p3704
sg13
Nsba(ibuftoken
BufToken
p3705
(dp3706
g5
I16
sg6
S'seriousness'
p3707
sg8
S'O'
sg9
S'NN'
p3708
sg11
S'seriousness'
p3709
sg13
Nsba(ibuftoken
BufToken
p3710
(dp3711
g5
I17
sg6
S'.'
sg8
S'O'
sg9
S'.'
sg11
S'.'
sg13
Nsbaa(lp3712
(ibuftoken
BufToken
p3713
(dp3714
g5
I0
sg6
S'Here'
p3715
sg8
S'O'
sg9
S'RB'
p3716
sg11
S'here'
p3717
sg13
Nsba(ibuftoken
BufToken
p3718
(dp3719
g5
I1
sg6
S'you'
p3720
sg8
S'O'
sg9
S'PRP'
p3721
sg11
S'you'
p3722
sg13
Nsba(ibuftoken
BufToken
p3723
(dp3724
g5
I2
sg6
S'may'
p3725
sg8
S'O'
sg9
S'MD'
p3726
sg11
S'may'
p3727
sg13
Nsba(ibuftoken
BufToken
p3728
(dp3729
g5
I3
sg6
S'see'
p3730
sg8
S'O'
sg9
S'VB'
p3731
sg11
S'see'
p3732
sg13
Nsba(ibuftoken
BufToken
p3733
(dp3734
g5
I4
sg6
S'the'
p3735
sg8
S'O'
sg9
S'DT'
p3736
sg11
S'the'
p3737
sg13
Nsba(ibuftoken
BufToken
p3738
(dp3739
g5
I5
sg6
S'best'
p3740
sg8
S'O'
sg9
S'JJS'
p3741
sg11
S'best'
p3742
sg13
Nsba(ibuftoken
BufToken
p3743
(dp3744
g5
I6
sg6
S'portrait'
p3745
sg8
S'O'
sg9
S'NN'
p3746
sg11
S'portrait'
p3747
sg13
Nsba(ibuftoken
BufToken
p3748
(dp3749
g5
I7
sg6
S'that'
p3750
sg8
S'O'
sg9
S'IN'
p3751
sg11
S'that'
p3752
sg13
Nsba(ibuftoken
BufToken
p3753
(dp3754
g5
I8
sg6
S','
sg8
S'O'
sg9
S','
sg11
S','
sg13
Nsba(ibuftoken
BufToken
p3755
(dp3756
g5
I9
sg6
S'later'
p3757
sg8
S'O'
sg9
S'RB'
p3758
sg11
S'later'
p3759
sg13
Nsba(ibuftoken
BufToken
p3760
(dp3761
g5
I10
sg6
S','
sg8
S'O'
sg9
S','
sg11
S','
sg13
Nsba(ibuftoken
BufToken
p3762
(dp3763
g5
I11
sg6
S'I'
sg8
S'O'
sg9
S'PRP'
p3764
sg11
S'I'
sg13
Nsba(ibuftoken
BufToken
p3765
(dp3766
g5
I12
sg6
S'was'
p3767
sg8
S'O'
sg9
S'VBD'
p3768
sg11
S'be'
p3769
sg13
Nsba(ibuftoken
BufToken
p3770
(dp3771
g5
I13
sg6
S'able'
p3772
sg8
S'O'
sg9
S'JJ'
p3773
sg11
S'able'
p3774
sg13
Nsba(ibuftoken
BufToken
p3775
(dp3776
g5
I14
sg6
S'to'
p3777
sg8
S'O'
sg9
S'TO'
p3778
sg11
S'to'
p3779
sg13
Nsba(ibuftoken
BufToken
p3780
(dp3781
g5
I15
sg6
S'make'
p3782
sg8
S'O'
sg9
S'VB'
p3783
sg11
S'make'
p3784
sg13
Nsba(ibuftoken
BufToken
p3785
(dp3786
g5
I16
sg6
S'of'
p3787
sg8
S'O'
sg9
S'IN'
p3788
sg11
S'of'
p3789
sg13
Nsba(ibuftoken
BufToken
p3790
(dp3791
g5
I17
sg6
S'him'
p3792
sg8
S'O'
sg9
S'PRP'
p3793
sg11
S'he'
p3794
sg13
Nsba(ibuftoken
BufToken
p3795
(dp3796
g5
I18
sg6
S'.'
sg8
S'O'
sg9
S'.'
sg11
S'.'
sg13
Nsbaa(lp3797
(ibuftoken
BufToken
p3798
(dp3799
g5
I0
sg6
S'But'
p3800
sg8
S'O'
sg9
S'CC'
p3801
sg11
S'but'
p3802
sg13
Nsba(ibuftoken
BufToken
p3803
(dp3804
g5
I1
sg6
S'my'
p3805
sg8
S'O'
sg9
S'PRP$'
p3806
sg11
S'my'
p3807
sg13
Nsba(ibuftoken
BufToken
p3808
(dp3809
g5
I2
sg6
S'drawing'
p3810
sg8
S'O'
sg9
S'NN'
p3811
sg11
S'drawing'
p3812
sg13
Nsba(ibuftoken
BufToken
p3813
(dp3814
g5
I3
sg6
S'is'
p3815
sg8
S'O'
sg9
S'VBZ'
p3816
sg11
S'be'
p3817
sg13
Nsba(ibuftoken
BufToken
p3818
(dp3819
g5
I4
sg6
S'certainly'
p3820
sg8
S'O'
sg9
S'RB'
p3821
sg11
S'certainly'
p3822
sg13
Nsba(ibuftoken
BufToken
p3823
(dp3824
g5
I5
sg6
S'very'
p3825
sg8
S'O'
sg9
S'RB'
p3826
sg11
S'very'
p3827
sg13
Nsba(ibuftoken
BufToken
p3828
(dp3829
g5
I6
sg6
S'much'
p3830
sg8
S'O'
sg9
S'RB'
p3831
sg11
S'much'
p3832
sg13
Nsba(ibuftoken
BufToken
p3833
(dp3834
g5
I7
sg6
S'less'
p3835
sg8
S'O'
sg9
S'JJR'
p3836
sg11
S'less'
p3837
sg13
Nsba(ibuftoken
BufToken
p3838
(dp3839
g5
I8
sg6
S'charming'
p3840
sg8
S'O'
sg9
S'JJ'
p3841
sg11
S'charming'
p3842
sg13
Nsba(ibuftoken
BufToken
p3843
(dp3844
g5
I9
sg6
S'than'
p3845
sg8
S'O'
sg9
S'IN'
p3846
sg11
S'than'
p3847
sg13
Nsba(ibuftoken
BufToken
p3848
(dp3849
g5
I10
sg6
S'its'
p3850
sg8
S'O'
sg9
S'PRP$'
p3851
sg11
S'its'
p3852
sg13
Nsba(ibuftoken
BufToken
p3853
(dp3854
g5
I11
sg6
S'model'
p3855
sg8
S'O'
sg9
S'NN'
p3856
sg11
S'model'
p3857
sg13
Nsba(ibuftoken
BufToken
p3858
(dp3859
g5
I12
sg6
S'.'
sg8
S'O'
sg9
S'.'
sg11
S'.'
sg13
Nsbaa(lp3860
(ibuftoken
BufToken
p3861
(dp3862
g5
I0
sg6
S'That'
p3863
sg8
S'O'
sg9
S'DT'
p3864
sg11
S'that'
p3865
sg13
Nsba(ibuftoken
BufToken
p3866
(dp3867
g5
I1
sg6
S','
sg8
S'O'
sg9
S','
sg11
S','
sg13
Nsba(ibuftoken
BufToken
p3868
(dp3869
g5
I2
sg6
S'however'
p3870
sg8
S'O'
sg9
S'RB'
p3871
sg11
S'however'
p3872
sg13
Nsba(ibuftoken
BufToken
p3873
(dp3874
g5
I3
sg6
S','
sg8
S'O'
sg9
S','
sg11
S','
sg13
Nsba(ibuftoken
BufToken
p3875
(dp3876
g5
I4
sg6
S'is'
p3877
sg8
S'O'
sg9
S'VBZ'
p3878
sg11
S'be'
p3879
sg13
Nsba(ibuftoken
BufToken
p3880
(dp3881
g5
I5
sg6
S'not'
p3882
sg8
S'O'
sg9
S'RB'
p3883
sg11
S'not'
p3884
sg13
Nsba(ibuftoken
BufToken
p3885
(dp3886
g5
I6
sg6
S'my'
p3887
sg8
S'O'
sg9
S'PRP$'
p3888
sg11
S'my'
p3889
sg13
Nsba(ibuftoken
BufToken
p3890
(dp3891
g5
I7
sg6
S'fault'
p3892
sg8
S'O'
sg9
S'NN'
p3893
sg11
S'fault'
p3894
sg13
Nsba(ibuftoken
BufToken
p3895
(dp3896
g5
I8
sg6
S'.'
sg8
S'O'
sg9
S'.'
sg11
S'.'
sg13
Nsbaa(lp3897
(ibuftoken
BufToken
p3898
(dp3899
g5
I0
sg6
S'The'
p3900
sg8
S'O'
sg9
S'DT'
p3901
sg11
S'the'
p3902
sg13
Nsba(ibuftoken
BufToken
p3903
(dp3904
g5
I1
sg6
S'grown'
p3905
sg8
S'O'
sg9
S'JJ'
p3906
sg11
S'grown'
p3907
sg13
Nsba(ibuftoken
BufToken
p3908
(dp3909
g5
I2
sg6
S'-'
sg8
S'O'
sg9
S':'
sg11
S'-'
sg13
Nsba(ibuftoken
BufToken
p3910
(dp3911
g5
I3
sg6
S'ups'
p3912
sg8
S'O'
sg9
S'NNS'
p3913
sg11
S'up'
p3914
sg13
Nsba(ibuftoken
BufToken
p3915
(dp3916
g5
I4
sg6
S'discouraged'
p3917
sg8
S'O'
sg9
S'VBD'
p3918
sg11
S'discourage'
p3919
sg13
Nsba(ibuftoken
BufToken
p3920
(dp3921
g5
I5
sg6
S'me'
p3922
sg8
S'O'
sg9
S'PRP'
p3923
sg11
S'I'
sg13
Nsba(ibuftoken
BufToken
p3924
(dp3925
g5
I6
sg6
S'in'
p3926
sg8
S'O'
sg9
S'IN'
p3927
sg11
S'in'
p3928
sg13
Nsba(ibuftoken
BufToken
p3929
(dp3930
g5
I7
sg6
S'my'
p3931
sg8
S'O'
sg9
S'PRP$'
p3932
sg11
S'my'
p3933
sg13
Nsba(ibuftoken
BufToken
p3934
(dp3935
g5
I8
sg6
S'painter'
p3936
sg8
S'O'
sg9
S'NN'
p3937
sg11
S'painter'
p3938
sg13
Nsba(ibuftoken
BufToken
p3939
(dp3940
g5
I9
sg6
S"'s"
p3941
sg8
S'O'
sg9
S'POS'
p3942
sg11
S"'s"
p3943
sg13
Nsba(ibuftoken
BufToken
p3944
(dp3945
g5
I10
sg6
S'career'
p3946
sg8
S'O'
sg9
S'NN'
p3947
sg11
S'career'
p3948
sg13
Nsba(ibuftoken
BufToken
p3949
(dp3950
g5
I11
sg6
S'when'
p3951
sg8
S'O'
sg9
S'WRB'
p3952
sg11
S'when'
p3953
sg13
Nsba(ibuftoken
BufToken
p3954
(dp3955
g5
I12
sg6
S'I'
sg8
S'O'
sg9
S'PRP'
p3956
sg11
S'I'
sg13
Nsba(ibuftoken
BufToken
p3957
(dp3958
g5
I13
sg6
S'was'
p3959
sg8
S'O'
sg9
S'VBD'
p3960
sg11
S'be'
p3961
sg13
Nsba(ibuftoken
BufToken
p3962
(dp3963
g5
I14
sg6
S'six'
p3964
sg8
S'DURATION'
p3965
sg9
S'CD'
p3966
sg11
S'six'
p3967
sg13
Nsba(ibuftoken
BufToken
p3968
(dp3969
g5
I15
sg6
S'years'
p3970
sg8
S'DURATION'
p3971
sg9
S'NNS'
p3972
sg11
S'year'
p3973
sg13
Nsba(ibuftoken
BufToken
p3974
(dp3975
g5
I16
sg6
S'old'
p3976
sg8
S'DURATION'
p3977
sg9
S'JJ'
p3978
sg11
S'old'
p3979
sg13
Nsba(ibuftoken
BufToken
p3980
(dp3981
g5
I17
sg6
S','
sg8
S'O'
sg9
S','
sg11
S','
sg13
Nsba(ibuftoken
BufToken
p3982
(dp3983
g5
I18
sg6
S'and'
p3984
sg8
S'O'
sg9
S'CC'
p3985
sg11
S'and'
p3986
sg13
Nsba(ibuftoken
BufToken
p3987
(dp3988
g5
I19
sg6
S'I'
sg8
S'O'
sg9
S'PRP'
p3989
sg11
S'I'
sg13
Nsba(ibuftoken
BufToken
p3990
(dp3991
g5
I20
sg6
S'never'
p3992
sg8
S'O'
sg9
S'RB'
p3993
sg11
S'never'
p3994
sg13
Nsba(ibuftoken
BufToken
p3995
(dp3996
g5
I21
sg6
S'learned'
p3997
sg8
S'O'
sg9
S'VBD'
p3998
sg11
S'learn'
p3999
sg13
Nsba(ibuftoken
BufToken
p4000
(dp4001
g5
I22
sg6
S'to'
p4002
sg8
S'O'
sg9
S'TO'
p4003
sg11
S'to'
p4004
sg13
Nsba(ibuftoken
BufToken
p4005
(dp4006
g5
I23
sg6
S'draw'
p4007
sg8
S'O'
sg9
S'VB'
p4008
sg11
S'draw'
p4009
sg13
Nsba(ibuftoken
BufToken
p4010
(dp4011
g5
I24
sg6
S'anything'
p4012
sg8
S'O'
sg9
S'NN'
p4013
sg11
S'anything'
p4014
sg13
Nsba(ibuftoken
BufToken
p4015
(dp4016
g5
I25
sg6
S','
sg8
S'O'
sg9
S','
sg11
S','
sg13
Nsba(ibuftoken
BufToken
p4017
(dp4018
g5
I26
sg6
S'except'
p4019
sg8
S'O'
sg9
S'IN'
p4020
sg11
S'except'
p4021
sg13
Nsba(ibuftoken
BufToken
p4022
(dp4023
g5
I27
sg6
S'boas'
p4024
sg8
S'O'
sg9
S'NNS'
p4025
sg11
S'boa'
p4026
sg13
Nsba(ibuftoken
BufToken
p4027
(dp4028
g5
I28
sg6
S'from'
p4029
sg8
S'O'
sg9
S'IN'
p4030
sg11
S'from'
p4031
sg13
Nsba(ibuftoken
BufToken
p4032
(dp4033
g5
I29
sg6
S'the'
p4034
sg8
S'O'
sg9
S'DT'
p4035
sg11
S'the'
p4036
sg13
Nsba(ibuftoken
BufToken
p4037
(dp4038
g5
I30
sg6
S'outside'
p4039
sg8
S'O'
sg9
S'JJ'
p4040
sg11
S'outside'
p4041
sg13
Nsba(ibuftoken
BufToken
p4042
(dp4043
g5
I31
sg6
S'and'
p4044
sg8
S'O'
sg9
S'CC'
p4045
sg11
S'and'
p4046
sg13
Nsba(ibuftoken
BufToken
p4047
(dp4048
g5
I32
sg6
S'boas'
p4049
sg8
S'O'
sg9
S'NNS'
p4050
sg11
S'boa'
p4051
sg13
Nsba(ibuftoken
BufToken
p4052
(dp4053
g5
I33
sg6
S'from'
p4054
sg8
S'O'
sg9
S'IN'
p4055
sg11
S'from'
p4056
sg13
Nsba(ibuftoken
BufToken
p4057
(dp4058
g5
I34
sg6
S'the'
p4059
sg8
S'O'
sg9
S'DT'
p4060
sg11
S'the'
p4061
sg13
Nsba(ibuftoken
BufToken
p4062
(dp4063
g5
I35
sg6
S'inside'
p4064
sg8
S'O'
sg9
S'NN'
p4065
sg11
S'inside'
p4066
sg13
Nsba(ibuftoken
BufToken
p4067
(dp4068
g5
I36
sg6
S'.'
sg8
S'O'
sg9
S'.'
sg11
S'.'
sg13
Nsbaa(lp4069
(ibuftoken
BufToken
p4070
(dp4071
g5
I0
sg6
S'Now'
p4072
sg8
S'DATE'
p4073
sg9
S'RB'
p4074
sg11
S'now'
p4075
sg13
Nsba(ibuftoken
BufToken
p4076
(dp4077
g5
I1
sg6
S'I'
sg8
S'O'
sg9
S'PRP'
p4078
sg11
S'I'
sg13
Nsba(ibuftoken
BufToken
p4079
(dp4080
g5
I2
sg6
S'stared'
p4081
sg8
S'O'
sg9
S'VBD'
p4082
sg11
S'stare'
p4083
sg13
Nsba(ibuftoken
BufToken
p4084
(dp4085
g5
I3
sg6
S'at'
p4086
sg8
S'O'
sg9
S'IN'
p4087
sg11
S'at'
p4088
sg13
Nsba(ibuftoken
BufToken
p4089
(dp4090
g5
I4
sg6
S'this'
p4091
sg8
S'O'
sg9
S'DT'
p4092
sg11
S'this'
p4093
sg13
Nsba(ibuftoken
BufToken
p4094
(dp4095
g5
I5
sg6
S'sudden'
p4096
sg8
S'O'
sg9
S'JJ'
p4097
sg11
S'sudden'
p4098
sg13
Nsba(ibuftoken
BufToken
p4099
(dp4100
g5
I6
sg6
S'apparition'
p4101
sg8
S'O'
sg9
S'NN'
p4102
sg11
S'apparition'
p4103
sg13
Nsba(ibuftoken
BufToken
p4104
(dp4105
g5
I7
sg6
S'with'
p4106
sg8
S'O'
sg9
S'IN'
p4107
sg11
S'with'
p4108
sg13
Nsba(ibuftoken
BufToken
p4109
(dp4110
g5
I8
sg6
S'my'
p4111
sg8
S'O'
sg9
S'PRP$'
p4112
sg11
S'my'
p4113
sg13
Nsba(ibuftoken
BufToken
p4114
(dp4115
g5
I9
sg6
S'eyes'
p4116
sg8
S'O'
sg9
S'NNS'
p4117
sg11
S'eye'
p4118
sg13
Nsba(ibuftoken
BufToken
p4119
(dp4120
g5
I10
sg6
S'fairly'
p4121
sg8
S'O'
sg9
S'RB'
p4122
sg11
S'fairly'
p4123
sg13
Nsba(ibuftoken
BufToken
p4124
(dp4125
g5
I11
sg6
S'starting'
p4126
sg8
S'O'
sg9
S'VBG'
p4127
sg11
S'start'
p4128
sg13
Nsba(ibuftoken
BufToken
p4129
(dp4130
g5
I12
sg6
S'out'
p4131
sg8
S'O'
sg9
S'IN'
p4132
sg11
S'out'
p4133
sg13
Nsba(ibuftoken
BufToken
p4134
(dp4135
g5
I13
sg6
S'of'
p4136
sg8
S'O'
sg9
S'IN'
p4137
sg11
S'of'
p4138
sg13
Nsba(ibuftoken
BufToken
p4139
(dp4140
g5
I14
sg6
S'my'
p4141
sg8
S'O'
sg9
S'PRP$'
p4142
sg11
S'my'
p4143
sg13
Nsba(ibuftoken
BufToken
p4144
(dp4145
g5
I15
sg6
S'head'
p4146
sg8
S'O'
sg9
S'NN'
p4147
sg11
S'head'
p4148
sg13
Nsba(ibuftoken
BufToken
p4149
(dp4150
g5
I16
sg6
S'in'
p4151
sg8
S'O'
sg9
S'IN'
p4152
sg11
S'in'
p4153
sg13
Nsba(ibuftoken
BufToken
p4154
(dp4155
g5
I17
sg6
S'astonishment'
p4156
sg8
S'O'
sg9
S'NN'
p4157
sg11
S'astonishment'
p4158
sg13
Nsba(ibuftoken
BufToken
p4159
(dp4160
g5
I18
sg6
S'.'
sg8
S'O'
sg9
S'.'
sg11
S'.'
sg13
Nsbaa(lp4161
(ibuftoken
BufToken
p4162
(dp4163
g5
I0
sg6
S'Remember'
p4164
sg8
S'O'
sg9
S'VB'
p4165
sg11
S'remember'
p4166
sg13
Nsba(ibuftoken
BufToken
p4167
(dp4168
g5
I1
sg6
S','
sg8
S'O'
sg9
S','
sg11
S','
sg13
Nsba(ibuftoken
BufToken
p4169
(dp4170
g5
I2
sg6
S'I'
sg8
S'O'
sg9
S'PRP'
p4171
sg11
S'I'
sg13
Nsba(ibuftoken
BufToken
p4172
(dp4173
g5
I3
sg6
S'had'
p4174
sg8
S'O'
sg9
S'VBD'
p4175
sg11
S'have'
p4176
sg13
Nsba(ibuftoken
BufToken
p4177
(dp4178
g5
I4
sg6
S'crashed'
p4179
sg8
S'O'
sg9
S'VBN'
p4180
sg11
S'crash'
p4181
sg13
Nsba(ibuftoken
BufToken
p4182
(dp4183
g5
I5
sg6
S'in'
p4184
sg8
S'O'
sg9
S'IN'
p4185
sg11
S'in'
p4186
sg13
Nsba(ibuftoken
BufToken
p4187
(dp4188
g5
I6
sg6
S'the'
p4189
sg8
S'O'
sg9
S'DT'
p4190
sg11
S'the'
p4191
sg13
Nsba(ibuftoken
BufToken
p4192
(dp4193
g5
I7
sg6
S'desert'
p4194
sg8
S'O'
sg9
S'NN'
p4195
sg11
S'desert'
p4196
sg13
Nsba(ibuftoken
BufToken
p4197
(dp4198
g5
I8
sg6
S'a'
sg8
S'O'
sg9
S'DT'
p4199
sg11
S'a'
sg13
Nsba(ibuftoken
BufToken
p4200
(dp4201
g5
I9
sg6
S'1000'
p4202
sg8
S'NUMBER'
p4203
sg9
S'CD'
p4204
sg11
S'thousand'
p4205
sg13
Nsba(ibuftoken
BufToken
p4206
(dp4207
g5
I10
sg6
S'miles'
p4208
sg8
S'O'
sg9
S'NNS'
p4209
sg11
S'mile'
p4210
sg13
Nsba(ibuftoken
BufToken
p4211
(dp4212
g5
I11
sg6
S'from'
p4213
sg8
S'O'
sg9
S'IN'
p4214
sg11
S'from'
p4215
sg13
Nsba(ibuftoken
BufToken
p4216
(dp4217
g5
I12
sg6
S'any'
p4218
sg8
S'O'
sg9
S'DT'
p4219
sg11
S'any'
p4220
sg13
Nsba(ibuftoken
BufToken
p4221
(dp4222
g5
I13
sg6
S'inhabited'
p4223
sg8
S'O'
sg9
S'VBN'
p4224
sg11
S'inhabit'
p4225
sg13
Nsba(ibuftoken
BufToken
p4226
(dp4227
g5
I14
sg6
S'region'
p4228
sg8
S'O'
sg9
S'NN'
p4229
sg11
S'region'
p4230
sg13
Nsba(ibuftoken
BufToken
p4231
(dp4232
g5
I15
sg6
S'.'
sg8
S'O'
sg9
S'.'
sg11
S'.'
sg13
Nsbaa(lp4233
(ibuftoken
BufToken
p4234
(dp4235
g5
I0
sg6
S'And'
p4236
sg8
S'O'
sg9
S'CC'
p4237
sg11
S'and'
p4238
sg13
Nsba(ibuftoken
BufToken
p4239
(dp4240
g5
I1
sg6
S'yet'
p4241
sg8
S'O'
sg9
S'RB'
p4242
sg11
S'yet'
p4243
sg13
Nsba(ibuftoken
BufToken
p4244
(dp4245
g5
I2
sg6
S'my'
p4246
sg8
S'O'
sg9
S'PRP$'
p4247
sg11
S'my'
p4248
sg13
Nsba(ibuftoken
BufToken
p4249
(dp4250
g5
I3
sg6
S'little'
p4251
sg8
S'O'
sg9
S'JJ'
p4252
sg11
S'little'
p4253
sg13
Nsba(ibuftoken
BufToken
p4254
(dp4255
g5
I4
sg6
S'man'
p4256
sg8
S'O'
sg9
S'NN'
p4257
sg11
S'man'
p4258
sg13
Nsba(ibuftoken
BufToken
p4259
(dp4260
g5
I5
sg6
S'seemed'
p4261
sg8
S'O'
sg9
S'VBD'
p4262
sg11
S'seem'
p4263
sg13
Nsba(ibuftoken
BufToken
p4264
(dp4265
g5
I6
sg6
S'neither'
p4266
sg8
S'O'
sg9
S'CC'
p4267
sg11
S'neither'
p4268
sg13
Nsba(ibuftoken
BufToken
p4269
(dp4270
g5
I7
sg6
S'to'
p4271
sg8
S'O'
sg9
S'TO'
p4272
sg11
S'to'
p4273
sg13
Nsba(ibuftoken
BufToken
p4274
(dp4275
g5
I8
sg6
S'be'
p4276
sg8
S'O'
sg9
S'VB'
p4277
sg11
S'be'
p4278
sg13
Nsba(ibuftoken
BufToken
p4279
(dp4280
g5
I9
sg6
S'straying'
p4281
sg8
S'O'
sg9
S'VBG'
p4282
sg11
S'stray'
p4283
sg13
Nsba(ibuftoken
BufToken
p4284
(dp4285
g5
I10
sg6
S'uncertainly'
p4286
sg8
S'O'
sg9
S'RB'
p4287
sg11
S'uncertainly'
p4288
sg13
Nsba(ibuftoken
BufToken
p4289
(dp4290
g5
I11
sg6
S'among'
p4291
sg8
S'O'
sg9
S'IN'
p4292
sg11
S'among'
p4293
sg13
Nsba(ibuftoken
BufToken
p4294
(dp4295
g5
I12
sg6
S'the'
p4296
sg8
S'O'
sg9
S'DT'
p4297
sg11
S'the'
p4298
sg13
Nsba(ibuftoken
BufToken
p4299
(dp4300
g5
I13
sg6
S'sands'
p4301
sg8
S'O'
sg9
S'NNS'
p4302
sg11
S'sand'
p4303
sg13
Nsba(ibuftoken
BufToken
p4304
(dp4305
g5
I14
sg6
S','
sg8
S'O'
sg9
S','
sg11
S','
sg13
Nsba(ibuftoken
BufToken
p4306
(dp4307
g5
I15
sg6
S'nor'
p4308
sg8
S'O'
sg9
S'CC'
p4309
sg11
S'nor'
p4310
sg13
Nsba(ibuftoken
BufToken
p4311
(dp4312
g5
I16
sg6
S'to'
p4313
sg8
S'O'
sg9
S'TO'
p4314
sg11
S'to'
p4315
sg13
Nsba(ibuftoken
BufToken
p4316
(dp4317
g5
I17
sg6
S'be'
p4318
sg8
S'O'
sg9
S'VB'
p4319
sg11
S'be'
p4320
sg13
Nsba(ibuftoken
BufToken
p4321
(dp4322
g5
I18
sg6
S'fainting'
p4323
sg8
S'O'
sg9
S'VBG'
p4324
sg11
S'faint'
p4325
sg13
Nsba(ibuftoken
BufToken
p4326
(dp4327
g5
I19
sg6
S'from'
p4328
sg8
S'O'
sg9
S'IN'
p4329
sg11
S'from'
p4330
sg13
Nsba(ibuftoken
BufToken
p4331
(dp4332
g5
I20
sg6
S'fatigue'
p4333
sg8
S'O'
sg9
S'NN'
p4334
sg11
S'fatigue'
p4335
sg13
Nsba(ibuftoken
BufToken
p4336
(dp4337
g5
I21
sg6
S'or'
p4338
sg8
S'O'
sg9
S'CC'
p4339
sg11
S'or'
p4340
sg13
Nsba(ibuftoken
BufToken
p4341
(dp4342
g5
I22
sg6
S'hunger'
p4343
sg8
S'O'
sg9
S'NN'
p4344
sg11
S'hunger'
p4345
sg13
Nsba(ibuftoken
BufToken
p4346
(dp4347
g5
I23
sg6
S'or'
p4348
sg8
S'O'
sg9
S'CC'
p4349
sg11
S'or'
p4350
sg13
Nsba(ibuftoken
BufToken
p4351
(dp4352
g5
I24
sg6
S'thirst'
p4353
sg8
S'O'
sg9
S'NN'
p4354
sg11
S'thirst'
p4355
sg13
Nsba(ibuftoken
BufToken
p4356
(dp4357
g5
I25
sg6
S'or'
p4358
sg8
S'O'
sg9
S'CC'
p4359
sg11
S'or'
p4360
sg13
Nsba(ibuftoken
BufToken
p4361
(dp4362
g5
I26
sg6
S'fear'
p4363
sg8
S'O'
sg9
S'NN'
p4364
sg11
S'fear'
p4365
sg13
Nsba(ibuftoken
BufToken
p4366
(dp4367
g5
I27
sg6
S'.'
sg8
S'O'
sg9
S'.'
sg11
S'.'
sg13
Nsbaa(lp4368
(ibuftoken
BufToken
p4369
(dp4370
g5
I0
sg6
S'Nothing'
p4371
sg8
S'O'
sg9
S'NN'
p4372
sg11
S'nothing'
p4373
sg13
Nsba(ibuftoken
BufToken
p4374
(dp4375
g5
I1
sg6
S'about'
p4376
sg8
S'O'
sg9
S'IN'
p4377
sg11
S'about'
p4378
sg13
Nsba(ibuftoken
BufToken
p4379
(dp4380
g5
I2
sg6
S'him'
p4381
sg8
S'O'
sg9
S'PRP'
p4382
sg11
S'he'
p4383
sg13
Nsba(ibuftoken
BufToken
p4384
(dp4385
g5
I3
sg6
S'gave'
p4386
sg8
S'O'
sg9
S'VBD'
p4387
sg11
S'give'
p4388
sg13
Nsba(ibuftoken
BufToken
p4389
(dp4390
g5
I4
sg6
S'any'
p4391
sg8
S'O'
sg9
S'DT'
p4392
sg11
S'any'
p4393
sg13
Nsba(ibuftoken
BufToken
p4394
(dp4395
g5
I5
sg6
S'suggestion'
p4396
sg8
S'O'
sg9
S'NN'
p4397
sg11
S'suggestion'
p4398
sg13
Nsba(ibuftoken
BufToken
p4399
(dp4400
g5
I6
sg6
S'of'
p4401
sg8
S'O'
sg9
S'IN'
p4402
sg11
S'of'
p4403
sg13
Nsba(ibuftoken
BufToken
p4404
(dp4405
g5
I7
sg6
S'a'
sg8
S'O'
sg9
S'DT'
p4406
sg11
S'a'
sg13
Nsba(ibuftoken
BufToken
p4407
(dp4408
g5
I8
sg6
S'child'
p4409
sg8
S'O'
sg9
S'NN'
p4410
sg11
S'child'
p4411
sg13
Nsba(ibuftoken
BufToken
p4412
(dp4413
g5
I9
sg6
S'lost'
p4414
sg8
S'O'
sg9
S'VBN'
p4415
sg11
S'lose'
p4416
sg13
Nsba(ibuftoken
BufToken
p4417
(dp4418
g5
I10
sg6
S'in'
p4419
sg8
S'O'
sg9
S'IN'
p4420
sg11
S'in'
p4421
sg13
Nsba(ibuftoken
BufToken
p4422
(dp4423
g5
I11
sg6
S'the'
p4424
sg8
S'O'
sg9
S'DT'
p4425
sg11
S'the'
p4426
sg13
Nsba(ibuftoken
BufToken
p4427
(dp4428
g5
I12
sg6
S'middle'
p4429
sg8
S'O'
sg9
S'NN'
p4430
sg11
S'middle'
p4431
sg13
Nsba(ibuftoken
BufToken
p4432
(dp4433
g5
I13
sg6
S'of'
p4434
sg8
S'O'
sg9
S'IN'
p4435
sg11
S'of'
p4436
sg13
Nsba(ibuftoken
BufToken
p4437
(dp4438
g5
I14
sg6
S'the'
p4439
sg8
S'O'
sg9
S'DT'
p4440
sg11
S'the'
p4441
sg13
Nsba(ibuftoken
BufToken
p4442
(dp4443
g5
I15
sg6
S'desert'
p4444
sg8
S'O'
sg9
S'NN'
p4445
sg11
S'desert'
p4446
sg13
Nsba(ibuftoken
BufToken
p4447
(dp4448
g5
I16
sg6
S','
sg8
S'O'
sg9
S','
sg11
S','
sg13
Nsba(ibuftoken
BufToken
p4449
(dp4450
g5
I17
sg6
S'a'
sg8
S'O'
sg9
S'DT'
p4451
sg11
S'a'
sg13
Nsba(ibuftoken
BufToken
p4452
(dp4453
g5
I18
sg6
S'1000'
p4454
sg8
S'NUMBER'
p4455
sg9
S'CD'
p4456
sg11
S'thousand'
p4457
sg13
Nsba(ibuftoken
BufToken
p4458
(dp4459
g5
I19
sg6
S'miles'
p4460
sg8
S'O'
sg9
S'NNS'
p4461
sg11
S'mile'
p4462
sg13
Nsba(ibuftoken
BufToken
p4463
(dp4464
g5
I20
sg6
S'from'
p4465
sg8
S'O'
sg9
S'IN'
p4466
sg11
S'from'
p4467
sg13
Nsba(ibuftoken
BufToken
p4468
(dp4469
g5
I21
sg6
S'any'
p4470
sg8
S'O'
sg9
S'DT'
p4471
sg11
S'any'
p4472
sg13
Nsba(ibuftoken
BufToken
p4473
(dp4474
g5
I22
sg6
S'human'
p4475
sg8
S'O'
sg9
S'JJ'
p4476
sg11
S'human'
p4477
sg13
Nsba(ibuftoken
BufToken
p4478
(dp4479
g5
I23
sg6
S'habitation'
p4480
sg8
S'O'
sg9
S'NN'
p4481
sg11
S'habitation'
p4482
sg13
Nsba(ibuftoken
BufToken
p4483
(dp4484
g5
I24
sg6
S'.'
sg8
S'O'
sg9
S'.'
sg11
S'.'
sg13
Nsbaa(lp4485
(ibuftoken
BufToken
p4486
(dp4487
g5
I0
sg6
S'When'
p4488
sg8
S'O'
sg9
S'WRB'
p4489
sg11
S'when'
p4490
sg13
Nsba(ibuftoken
BufToken
p4491
(dp4492
g5
I1
sg6
S'at'
p4493
sg8
S'O'
sg9
S'IN'
p4494
sg11
S'at'
p4495
sg13
Nsba(ibuftoken
BufToken
p4496
(dp4497
g5
I2
sg6
S'last'
p4498
sg8
S'O'
sg9
S'JJ'
p4499
sg11
S'last'
p4500
sg13
Nsba(ibuftoken
BufToken
p4501
(dp4502
g5
I3
sg6
S'I'
sg8
S'O'
sg9
S'PRP'
p4503
sg11
S'I'
sg13
Nsba(ibuftoken
BufToken
p4504
(dp4505
g5
I4
sg6
S'was'
p4506
sg8
S'O'
sg9
S'VBD'
p4507
sg11
S'be'
p4508
sg13
Nsba(ibuftoken
BufToken
p4509
(dp4510
g5
I5
sg6
S'able'
p4511
sg8
S'O'
sg9
S'JJ'
p4512
sg11
S'able'
p4513
sg13
Nsba(ibuftoken
BufToken
p4514
(dp4515
g5
I6
sg6
S'to'
p4516
sg8
S'O'
sg9
S'TO'
p4517
sg11
S'to'
p4518
sg13
Nsba(ibuftoken
BufToken
p4519
(dp4520
g5
I7
sg6
S'speak'
p4521
sg8
S'O'
sg9
S'VB'
p4522
sg11
S'speak'
p4523
sg13
Nsba(ibuftoken
BufToken
p4524
(dp4525
g5
I8
sg6
S','
sg8
S'O'
sg9
S','
sg11
S','
sg13
Nsba(ibuftoken
BufToken
p4526
(dp4527
g5
I9
sg6
S'I'
sg8
S'O'
sg9
S'PRP'
p4528
sg11
S'I'
sg13
Nsba(ibuftoken
BufToken
p4529
(dp4530
g5
I10
sg6
S'said'
p4531
sg8
S'O'
sg9
S'VBD'
p4532
sg11
S'say'
p4533
sg13
Nsba(ibuftoken
BufToken
p4534
(dp4535
g5
I11
sg6
S'to'
p4536
sg8
S'O'
sg9
S'TO'
p4537
sg11
S'to'
p4538
sg13
Nsba(ibuftoken
BufToken
p4539
(dp4540
g5
I12
sg6
S'him'
p4541
sg8
S'O'
sg9
S'PRP'
p4542
sg11
S'he'
p4543
sg13
Nsba(ibuftoken
BufToken
p4544
(dp4545
g5
I13
sg6
S':'
sg8
S'O'
sg9
S':'
sg11
S':'
sg13
Nsba(ibuftoken
BufToken
p4546
(dp4547
g5
I14
sg6
S'"'
sg8
S'O'
sg9
S'``'
p4548
sg11
S'"'
sg13
Nsba(ibuftoken
BufToken
p4549
(dp4550
g5
I15
sg6
S'But'
p4551
sg8
S'O'
sg9
S'CC'
p4552
sg11
S'but'
p4553
sg13
Nsba(ibuftoken
BufToken
p4554
(dp4555
g5
I16
sg6
S'--'
p4556
sg8
S'O'
sg9
S':'
sg11
S'--'
p4557
sg13
Nsba(ibuftoken
BufToken
p4558
(dp4559
g5
I17
sg6
S'what'
p4560
sg8
S'O'
sg9
S'WP'
p4561
sg11
S'what'
p4562
sg13
Nsba(ibuftoken
BufToken
p4563
(dp4564
g5
I18
sg6
S'are'
p4565
sg8
S'O'
sg9
S'VBP'
p4566
sg11
S'be'
p4567
sg13
Nsba(ibuftoken
BufToken
p4568
(dp4569
g5
I19
sg6
S'you'
p4570
sg8
S'O'
sg9
S'PRP'
p4571
sg11
S'you'
p4572
sg13
Nsba(ibuftoken
BufToken
p4573
(dp4574
g5
I20
sg6
S'doing'
p4575
sg8
S'O'
sg9
S'VBG'
p4576
sg11
S'do'
p4577
sg13
Nsba(ibuftoken
BufToken
p4578
(dp4579
g5
I21
sg6
S'here'
p4580
sg8
S'O'
sg9
S'RB'
p4581
sg11
S'here'
p4582
sg13
Nsba(ibuftoken
BufToken
p4583
(dp4584
g5
I22
sg6
S'?'
sg8
S'O'
sg9
S'.'
sg11
S'?'
sg13
Nsba(ibuftoken
BufToken
p4585
(dp4586
g5
I23
sg6
S'\xe2\x80\x9d'
p4587
sg8
S'O'
sg9
S'SYM'
p4588
sg11
S'\xe2\x80\x9d'
p4589
sg13
Nsbaa(lp4590
(ibuftoken
BufToken
p4591
(dp4592
g5
I0
sg6
S'And'
p4593
sg8
S'O'
sg9
S'CC'
p4594
sg11
S'and'
p4595
sg13
Nsba(ibuftoken
BufToken
p4596
(dp4597
g5
I1
sg6
S'in'
p4598
sg8
S'O'
sg9
S'IN'
p4599
sg11
S'in'
p4600
sg13
Nsba(ibuftoken
BufToken
p4601
(dp4602
g5
I2
sg6
S'answer'
p4603
sg8
S'O'
sg9
S'NN'
p4604
sg11
S'answer'
p4605
sg13
Nsba(ibuftoken
BufToken
p4606
(dp4607
g5
I3
sg6
S'he'
p4608
sg8
S'O'
sg9
S'PRP'
p4609
sg11
S'he'
p4610
sg13
Nsba(ibuftoken
BufToken
p4611
(dp4612
g5
I4
sg6
S'repeated'
p4613
sg8
S'O'
sg9
S'VBD'
p4614
sg11
S'repeat'
p4615
sg13
Nsba(ibuftoken
BufToken
p4616
(dp4617
g5
I5
sg6
S','
sg8
S'O'
sg9
S','
sg11
S','
sg13
Nsba(ibuftoken
BufToken
p4618
(dp4619
g5
I6
sg6
S'very'
p4620
sg8
S'O'
sg9
S'RB'
p4621
sg11
S'very'
p4622
sg13
Nsba(ibuftoken
BufToken
p4623
(dp4624
g5
I7
sg6
S'slowly'
p4625
sg8
S'O'
sg9
S'RB'
p4626
sg11
S'slowly'
p4627
sg13
Nsba(ibuftoken
BufToken
p4628
(dp4629
g5
I8
sg6
S','
sg8
S'O'
sg9
S','
sg11
S','
sg13
Nsba(ibuftoken
BufToken
p4630
(dp4631
g5
I9
sg6
S'as'
p4632
sg8
S'O'
sg9
S'IN'
p4633
sg11
S'as'
p4634
sg13
Nsba(ibuftoken
BufToken
p4635
(dp4636
g5
I10
sg6
S'if'
p4637
sg8
S'O'
sg9
S'IN'
p4638
sg11
S'if'
p4639
sg13
Nsba(ibuftoken
BufToken
p4640
(dp4641
g5
I11
sg6
S'he'
p4642
sg8
S'O'
sg9
S'PRP'
p4643
sg11
S'he'
p4644
sg13
Nsba(ibuftoken
BufToken
p4645
(dp4646
g5
I12
sg6
S'were'
p4647
sg8
S'O'
sg9
S'VBD'
p4648
sg11
S'be'
p4649
sg13
Nsba(ibuftoken
BufToken
p4650
(dp4651
g5
I13
sg6
S'speaking'
p4652
sg8
S'O'
sg9
S'VBG'
p4653
sg11
S'speak'
p4654
sg13
Nsba(ibuftoken
BufToken
p4655
(dp4656
g5
I14
sg6
S'of'
p4657
sg8
S'O'
sg9
S'IN'
p4658
sg11
S'of'
p4659
sg13
Nsba(ibuftoken
BufToken
p4660
(dp4661
g5
I15
sg6
S'a'
sg8
S'O'
sg9
S'DT'
p4662
sg11
S'a'
sg13
Nsba(ibuftoken
BufToken
p4663
(dp4664
g5
I16
sg6
S'matter'
p4665
sg8
S'O'
sg9
S'NN'
p4666
sg11
S'matter'
p4667
sg13
Nsba(ibuftoken
BufToken
p4668
(dp4669
g5
I17
sg6
S'of'
p4670
sg8
S'O'
sg9
S'IN'
p4671
sg11
S'of'
p4672
sg13
Nsba(ibuftoken
BufToken
p4673
(dp4674
g5
I18
sg6
S'great'
p4675
sg8
S'O'
sg9
S'JJ'
p4676
sg11
S'great'
p4677
sg13
Nsba(ibuftoken
BufToken
p4678
(dp4679
g5
I19
sg6
S'consequence'
p4680
sg8
S'O'
sg9
S'NN'
p4681
sg11
S'consequence'
p4682
sg13
Nsba(ibuftoken
BufToken
p4683
(dp4684
g5
I20
sg6
S':'
sg8
S'O'
sg9
S':'
sg11
S':'
sg13
Nsba(ibuftoken
BufToken
p4685
(dp4686
g5
I21
sg6
S'"'
sg8
S'O'
sg9
S'``'
p4687
sg11
S'"'
sg13
Nsba(ibuftoken
BufToken
p4688
(dp4689
g5
I22
sg6
S'If'
p4690
sg8
S'O'
sg9
S'IN'
p4691
sg11
S'if'
p4692
sg13
Nsba(ibuftoken
BufToken
p4693
(dp4694
g5
I23
sg6
S'you'
p4695
sg8
S'O'
sg9
S'PRP'
p4696
sg11
S'you'
p4697
sg13
Nsba(ibuftoken
BufToken
p4698
(dp4699
g5
I24
sg6
S'please'
p4700
sg8
S'O'
sg9
S'VB'
p4701
sg11
S'please'
p4702
sg13
Nsba(ibuftoken
BufToken
p4703
(dp4704
g5
I25
sg6
S'--'
p4705
sg8
S'O'
sg9
S':'
sg11
S'--'
p4706
sg13
Nsba(ibuftoken
BufToken
p4707
(dp4708
g5
I26
sg6
S'draw'
p4709
sg8
S'O'
sg9
S'VB'
p4710
sg11
S'draw'
p4711
sg13
Nsba(ibuftoken
BufToken
p4712
(dp4713
g5
I27
sg6
S'me'
p4714
sg8
S'O'
sg9
S'PRP'
p4715
sg11
S'I'
sg13
Nsba(ibuftoken
BufToken
p4716
(dp4717
g5
I28
sg6
S'a'
sg8
S'O'
sg9
S'DT'
p4718
sg11
S'a'
sg13
Nsba(ibuftoken
BufToken
p4719
(dp4720
g5
I29
sg6
S'sheep'
p4721
sg8
S'O'
sg9
S'NN'
p4722
sg11
S'sheep'
p4723
sg13
Nsba(ibuftoken
BufToken
p4724
(dp4725
g5
I30
sg6
S'...'
p4726
sg8
S'O'
sg9
S':'
sg11
S'...'
p4727
sg13
Nsba(ibuftoken
BufToken
p4728
(dp4729
g5
I31
sg6
S'\xe2\x80\x9d'
p4730
sg8
S'NUMBER'
p4731
sg9
S'CD'
p4732
sg11
S'\xe2\x80\x9d'
p4733
sg13
Nsbaa(lp4734
(ibuftoken
BufToken
p4735
(dp4736
g5
I0
sg6
S'When'
p4737
sg8
S'O'
sg9
S'WRB'
p4738
sg11
S'when'
p4739
sg13
Nsba(ibuftoken
BufToken
p4740
(dp4741
g5
I1
sg6
S'a'
sg8
S'O'
sg9
S'DT'
p4742
sg11
S'a'
sg13
Nsba(ibuftoken
BufToken
p4743
(dp4744
g5
I2
sg6
S'mystery'
p4745
sg8
S'O'
sg9
S'NN'
p4746
sg11
S'mystery'
p4747
sg13
Nsba(ibuftoken
BufToken
p4748
(dp4749
g5
I3
sg6
S'is'
p4750
sg8
S'O'
sg9
S'VBZ'
p4751
sg11
S'be'
p4752
sg13
Nsba(ibuftoken
BufToken
p4753
(dp4754
g5
I4
sg6
S'too'
p4755
sg8
S'O'
sg9
S'RB'
p4756
sg11
S'too'
p4757
sg13
Nsba(ibuftoken
BufToken
p4758
(dp4759
g5
I5
sg6
S'overpowering'
p4760
sg8
S'O'
sg9
S'JJ'
p4761
sg11
S'overpowering'
p4762
sg13
Nsba(ibuftoken
BufToken
p4763
(dp4764
g5
I6
sg6
S','
sg8
S'O'
sg9
S','
sg11
S','
sg13
Nsba(ibuftoken
BufToken
p4765
(dp4766
g5
I7
sg6
S'1'
sg8
S'NUMBER'
p4767
sg9
S'CD'
p4768
sg11
S'one'
p4769
sg13
Nsba(ibuftoken
BufToken
p4770
(dp4771
g5
I8
sg6
S'dare'
p4772
sg8
S'O'
sg9
S'MD'
p4773
sg11
S'dare'
p4774
sg13
Nsba(ibuftoken
BufToken
p4775
(dp4776
g5
I9
sg6
S'not'
p4777
sg8
S'O'
sg9
S'RB'
p4778
sg11
S'not'
p4779
sg13
Nsba(ibuftoken
BufToken
p4780
(dp4781
g5
I10
sg6
S'disobey'
p4782
sg8
S'O'
sg9
S'VB'
p4783
sg11
S'disobey'
p4784
sg13
Nsba(ibuftoken
BufToken
p4785
(dp4786
g5
I11
sg6
S'.'
sg8
S'O'
sg9
S'.'
sg11
S'.'
sg13
Nsbaa(lp4787
(ibuftoken
BufToken
p4788
(dp4789
g5
I0
sg6
S'Absurd'
p4790
sg8
S'O'
sg9
S'JJ'
p4791
sg11
S'absurd'
p4792
sg13
Nsba(ibuftoken
BufToken
p4793
(dp4794
g5
I1
sg6
S'as'
p4795
sg8
S'O'
sg9
S'IN'
p4796
sg11
S'as'
p4797
sg13
Nsba(ibuftoken
BufToken
p4798
(dp4799
g5
I2
sg6
S'it'
p4800
sg8
S'O'
sg9
S'PRP'
p4801
sg11
S'it'
p4802
sg13
Nsba(ibuftoken
BufToken
p4803
(dp4804
g5
I3
sg6
S'might'
p4805
sg8
S'O'
sg9
S'MD'
p4806
sg11
S'might'
p4807
sg13
Nsba(ibuftoken
BufToken
p4808
(dp4809
g5
I4
sg6
S'seem'
p4810
sg8
S'O'
sg9
S'VB'
p4811
sg11
S'seem'
p4812
sg13
Nsba(ibuftoken
BufToken
p4813
(dp4814
g5
I5
sg6
S'to'
p4815
sg8
S'O'
sg9
S'TO'
p4816
sg11
S'to'
p4817
sg13
Nsba(ibuftoken
BufToken
p4818
(dp4819
g5
I6
sg6
S'me'
p4820
sg8
S'O'
sg9
S'PRP'
p4821
sg11
S'I'
sg13
Nsba(ibuftoken
BufToken
p4822
(dp4823
g5
I7
sg6
S','
sg8
S'O'
sg9
S','
sg11
S','
sg13
Nsba(ibuftoken
BufToken
p4824
(dp4825
g5
I8
sg6
S'a'
sg8
S'O'
sg9
S'DT'
p4826
sg11
S'a'
sg13
Nsba(ibuftoken
BufToken
p4827
(dp4828
g5
I9
sg6
S'1000'
p4829
sg8
S'NUMBER'
p4830
sg9
S'CD'
p4831
sg11
S'thousand'
p4832
sg13
Nsba(ibuftoken
BufToken
p4833
(dp4834
g5
I10
sg6
S'miles'
p4835
sg8
S'O'
sg9
S'NNS'
p4836
sg11
S'mile'
p4837
sg13
Nsba(ibuftoken
BufToken
p4838
(dp4839
g5
I11
sg6
S'from'
p4840
sg8
S'O'
sg9
S'IN'
p4841
sg11
S'from'
p4842
sg13
Nsba(ibuftoken
BufToken
p4843
(dp4844
g5
I12
sg6
S'any'
p4845
sg8
S'O'
sg9
S'DT'
p4846
sg11
S'any'
p4847
sg13
Nsba(ibuftoken
BufToken
p4848
(dp4849
g5
I13
sg6
S'human'
p4850
sg8
S'O'
sg9
S'JJ'
p4851
sg11
S'human'
p4852
sg13
Nsba(ibuftoken
BufToken
p4853
(dp4854
g5
I14
sg6
S'habitation'
p4855
sg8
S'O'
sg9
S'NN'
p4856
sg11
S'habitation'
p4857
sg13
Nsba(ibuftoken
BufToken
p4858
(dp4859
g5
I15
sg6
S'and'
p4860
sg8
S'O'
sg9
S'CC'
p4861
sg11
S'and'
p4862
sg13
Nsba(ibuftoken
BufToken
p4863
(dp4864
g5
I16
sg6
S'in'
p4865
sg8
S'O'
sg9
S'IN'
p4866
sg11
S'in'
p4867
sg13
Nsba(ibuftoken
BufToken
p4868
(dp4869
g5
I17
sg6
S'danger'
p4870
sg8
S'O'
sg9
S'NN'
p4871
sg11
S'danger'
p4872
sg13
Nsba(ibuftoken
BufToken
p4873
(dp4874
g5
I18
sg6
S'of'
p4875
sg8
S'O'
sg9
S'IN'
p4876
sg11
S'of'
p4877
sg13
Nsba(ibuftoken
BufToken
p4878
(dp4879
g5
I19
sg6
S'death'
p4880
sg8
S'O'
sg9
S'NN'
p4881
sg11
S'death'
p4882
sg13
Nsba(ibuftoken
BufToken
p4883
(dp4884
g5
I20
sg6
S','
sg8
S'O'
sg9
S','
sg11
S','
sg13
Nsba(ibuftoken
BufToken
p4885
(dp4886
g5
I21
sg6
S'I'
sg8
S'O'
sg9
S'PRP'
p4887
sg11
S'I'
sg13
Nsba(ibuftoken
BufToken
p4888
(dp4889
g5
I22
sg6
S'took'
p4890
sg8
S'O'
sg9
S'VBD'
p4891
sg11
S'take'
p4892
sg13
Nsba(ibuftoken
BufToken
p4893
(dp4894
g5
I23
sg6
S'out'
p4895
sg8
S'O'
sg9
S'RP'
p4896
sg11
S'out'
p4897
sg13
Nsba(ibuftoken
BufToken
p4898
(dp4899
g5
I24
sg6
S'of'
p4900
sg8
S'O'
sg9
S'IN'
p4901
sg11
S'of'
p4902
sg13
Nsba(ibuftoken
BufToken
p4903
(dp4904
g5
I25
sg6
S'my'
p4905
sg8
S'O'
sg9
S'PRP$'
p4906
sg11
S'my'
p4907
sg13
Nsba(ibuftoken
BufToken
p4908
(dp4909
g5
I26
sg6
S'pocket'
p4910
sg8
S'O'
sg9
S'NN'
p4911
sg11
S'pocket'
p4912
sg13
Nsba(ibuftoken
BufToken
p4913
(dp4914
g5
I27
sg6
S'a'
sg8
S'O'
sg9
S'DT'
p4915
sg11
S'a'
sg13
Nsba(ibuftoken
BufToken
p4916
(dp4917
g5
I28
sg6
S'sheet'
p4918
sg8
S'O'
sg9
S'NN'
p4919
sg11
S'sheet'
p4920
sg13
Nsba(ibuftoken
BufToken
p4921
(dp4922
g5
I29
sg6
S'of'
p4923
sg8
S'O'
sg9
S'IN'
p4924
sg11
S'of'
p4925
sg13
Nsba(ibuftoken
BufToken
p4926
(dp4927
g5
I30
sg6
S'paper'
p4928
sg8
S'O'
sg9
S'NN'
p4929
sg11
S'paper'
p4930
sg13
Nsba(ibuftoken
BufToken
p4931
(dp4932
g5
I31
sg6
S'and'
p4933
sg8
S'O'
sg9
S'CC'
p4934
sg11
S'and'
p4935
sg13
Nsba(ibuftoken
BufToken
p4936
(dp4937
g5
I32
sg6
S'my'
p4938
sg8
S'O'
sg9
S'PRP$'
p4939
sg11
S'my'
p4940
sg13
Nsba(ibuftoken
BufToken
p4941
(dp4942
g5
I33
sg6
S'fountain'
p4943
sg8
S'O'
sg9
S'NN'
p4944
sg11
S'fountain'
p4945
sg13
Nsba(ibuftoken
BufToken
p4946
(dp4947
g5
I34
sg6
S'-'
sg8
S'O'
sg9
S':'
sg11
S'-'
sg13
Nsba(ibuftoken
BufToken
p4948
(dp4949
g5
I35
sg6
S'pen'
p4950
sg8
S'O'
sg9
S'NN'
p4951
sg11
S'pen'
p4952
sg13
Nsba(ibuftoken
BufToken
p4953
(dp4954
g5
I36
sg6
S'.'
sg8
S'O'
sg9
S'.'
sg11
S'.'
sg13
Nsbaa(lp4955
(ibuftoken
BufToken
p4956
(dp4957
g5
I0
sg6
S'But'
p4958
sg8
S'O'
sg9
S'CC'
p4959
sg11
S'but'
p4960
sg13
Nsba(ibuftoken
BufToken
p4961
(dp4962
g5
I1
sg6
S'then'
p4963
sg8
S'O'
sg9
S'RB'
p4964
sg11
S'then'
p4965
sg13
Nsba(ibuftoken
BufToken
p4966
(dp4967
g5
I2
sg6
S'I'
sg8
S'O'
sg9
S'PRP'
p4968
sg11
S'I'
sg13
Nsba(ibuftoken
BufToken
p4969
(dp4970
g5
I3
sg6
S'remembered'
p4971
sg8
S'O'
sg9
S'VBD'
p4972
sg11
S'remember'
p4973
sg13
Nsba(ibuftoken
BufToken
p4974
(dp4975
g5
I4
sg6
S'how'
p4976
sg8
S'O'
sg9
S'WRB'
p4977
sg11
S'how'
p4978
sg13
Nsba(ibuftoken
BufToken
p4979
(dp4980
g5
I5
sg6
S'my'
p4981
sg8
S'O'
sg9
S'PRP$'
p4982
sg11
S'my'
p4983
sg13
Nsba(ibuftoken
BufToken
p4984
(dp4985
g5
I6
sg6
S'studies'
p4986
sg8
S'O'
sg9
S'NNS'
p4987
sg11
S'study'
p4988
sg13
Nsba(ibuftoken
BufToken
p4989
(dp4990
g5
I7
sg6
S'had'
p4991
sg8
S'O'
sg9
S'VBD'
p4992
sg11
S'have'
p4993
sg13
Nsba(ibuftoken
BufToken
p4994
(dp4995
g5
I8
sg6
S'been'
p4996
sg8
S'O'
sg9
S'VBN'
p4997
sg11
S'be'
p4998
sg13
Nsba(ibuftoken
BufToken
p4999
(dp5000
g5
I9
sg6
S'concentrated'
p5001
sg8
S'O'
sg9
S'VBN'
p5002
sg11
S'concentrate'
p5003
sg13
Nsba(ibuftoken
BufToken
p5004
(dp5005
g5
I10
sg6
S'on'
p5006
sg8
S'O'
sg9
S'IN'
p5007
sg11
S'on'
p5008
sg13
Nsba(ibuftoken
BufToken
p5009
(dp5010
g5
I11
sg6
S'geography'
p5011
sg8
S'O'
sg9
S'NN'
p5012
sg11
S'geography'
p5013
sg13
Nsba(ibuftoken
BufToken
p5014
(dp5015
g5
I12
sg6
S','
sg8
S'O'
sg9
S','
sg11
S','
sg13
Nsba(ibuftoken
BufToken
p5016
(dp5017
g5
I13
sg6
S'history'
p5018
sg8
S'O'
sg9
S'NN'
p5019
sg11
S'history'
p5020
sg13
Nsba(ibuftoken
BufToken
p5021
(dp5022
g5
I14
sg6
S','
sg8
S'O'
sg9
S','
sg11
S','
sg13
Nsba(ibuftoken
BufToken
p5023
(dp5024
g5
I15
sg6
S'arithmetic'
p5025
sg8
S'O'
sg9
S'NN'
p5026
sg11
S'arithmetic'
p5027
sg13
Nsba(ibuftoken
BufToken
p5028
(dp5029
g5
I16
sg6
S','
sg8
S'O'
sg9
S','
sg11
S','
sg13
Nsba(ibuftoken
BufToken
p5030
(dp5031
g5
I17
sg6
S'and'
p5032
sg8
S'O'
sg9
S'CC'
p5033
sg11
S'and'
p5034
sg13
Nsba(ibuftoken
BufToken
p5035
(dp5036
g5
I18
sg6
S'grammar'
p5037
sg8
S'O'
sg9
S'NN'
p5038
sg11
S'grammar'
p5039
sg13
Nsba(ibuftoken
BufToken
p5040
(dp5041
g5
I19
sg6
S','
sg8
S'O'
sg9
S','
sg11
S','
sg13
Nsba(ibuftoken
BufToken
p5042
(dp5043
g5
I20
sg6
S'and'
p5044
sg8
S'O'
sg9
S'CC'
p5045
sg11
S'and'
p5046
sg13
Nsba(ibuftoken
BufToken
p5047
(dp5048
g5
I21
sg6
S'I'
sg8
S'O'
sg9
S'PRP'
p5049
sg11
S'I'
sg13
Nsba(ibuftoken
BufToken
p5050
(dp5051
g5
I22
sg6
S'told'
p5052
sg8
S'O'
sg9
S'VBD'
p5053
sg11
S'tell'
p5054
sg13
Nsba(ibuftoken
BufToken
p5055
(dp5056
g5
I23
sg6
S'the'
p5057
sg8
S'O'
sg9
S'DT'
p5058
sg11
S'the'
p5059
sg13
Nsba(ibuftoken
BufToken
p5060
(dp5061
g5
I24
sg6
S'little'
p5062
sg8
S'O'
sg9
S'JJ'
p5063
sg11
S'little'
p5064
sg13
Nsba(ibuftoken
BufToken
p5065
(dp5066
g5
I25
sg6
S'chap'
p5067
sg8
S'O'
sg9
S'NN'
p5068
sg11
S'chap'
p5069
sg13
Nsba(ibuftoken
BufToken
p5070
(dp5071
g5
I26
sg6
S'('
sg8
S'O'
sg9
S'VBD'
p5072
sg11
S'('
sg13
Nsba(ibuftoken
BufToken
p5073
(dp5074
g5
I27
sg6
S'a'
sg8
S'O'
sg9
S'DT'
p5075
sg11
S'a'
sg13
Nsba(ibuftoken
BufToken
p5076
(dp5077
g5
I28
sg6
S'little'
p5078
sg8
S'O'
sg9
S'JJ'
p5079
sg11
S'little'
p5080
sg13
Nsba(ibuftoken
BufToken
p5081
(dp5082
g5
I29
sg6
S'crossly'
p5083
sg8
S'O'
sg9
S'RB'
p5084
sg11
S'crossly'
p5085
sg13
Nsba(ibuftoken
BufToken
p5086
(dp5087
g5
I30
sg6
S','
sg8
S'O'
sg9
S','
sg11
S','
sg13
Nsba(ibuftoken
BufToken
p5088
(dp5089
g5
I31
sg6
S'too'
p5090
sg8
S'O'
sg9
S'RB'
p5091
sg11
S'too'
p5092
sg13
Nsba(ibuftoken
BufToken
p5093
(dp5094
g5
I32
sg6
S')'
sg8
S'O'
sg9
S'RB'
p5095
sg11
S')'
sg13
Nsba(ibuftoken
BufToken
p5096
(dp5097
g5
I33
sg6
S'that'
p5098
sg8
S'O'
sg9
S'IN'
p5099
sg11
S'that'
p5100
sg13
Nsba(ibuftoken
BufToken
p5101
(dp5102
g5
I34
sg6
S'I'
sg8
S'O'
sg9
S'PRP'
p5103
sg11
S'I'
sg13
Nsba(ibuftoken
BufToken
p5104
(dp5105
g5
I35
sg6
S'did'
p5106
sg8
S'O'
sg9
S'VBD'
p5107
sg11
S'do'
p5108
sg13
Nsba(ibuftoken
BufToken
p5109
(dp5110
g5
I36
sg6
S'not'
p5111
sg8
S'O'
sg9
S'RB'
p5112
sg11
S'not'
p5113
sg13
Nsba(ibuftoken
BufToken
p5114
(dp5115
g5
I37
sg6
S'know'
p5116
sg8
S'O'
sg9
S'VB'
p5117
sg11
S'know'
p5118
sg13
Nsba(ibuftoken
BufToken
p5119
(dp5120
g5
I38
sg6
S'how'
p5121
sg8
S'O'
sg9
S'WRB'
p5122
sg11
S'how'
p5123
sg13
Nsba(ibuftoken
BufToken
p5124
(dp5125
g5
I39
sg6
S'to'
p5126
sg8
S'O'
sg9
S'TO'
p5127
sg11
S'to'
p5128
sg13
Nsba(ibuftoken
BufToken
p5129
(dp5130
g5
I40
sg6
S'draw'
p5131
sg8
S'O'
sg9
S'VB'
p5132
sg11
S'draw'
p5133
sg13
Nsba(ibuftoken
BufToken
p5134
(dp5135
g5
I41
sg6
S'.'
sg8
S'O'
sg9
S'.'
sg11
S'.'
sg13
Nsbaa(lp5136
(ibuftoken
BufToken
p5137
(dp5138
g5
I0
sg6
S'He'
p5139
sg8
S'O'
sg9
S'PRP'
p5140
sg11
S'he'
p5141
sg13
Nsba(ibuftoken
BufToken
p5142
(dp5143
g5
I1
sg6
S'answered'
p5144
sg8
S'O'
sg9
S'VBD'
p5145
sg11
S'answer'
p5146
sg13
Nsba(ibuftoken
BufToken
p5147
(dp5148
g5
I2
sg6
S'me'
p5149
sg8
S'O'
sg9
S'PRP'
p5150
sg11
S'I'
sg13
Nsba(ibuftoken
BufToken
p5151
(dp5152
g5
I3
sg6
S':'
sg8
S'O'
sg9
S':'
sg11
S':'
sg13
Nsba(ibuftoken
BufToken
p5153
(dp5154
g5
I4
sg6
S'"'
sg8
S'O'
sg9
S'``'
p5155
sg11
S'"'
sg13
Nsba(ibuftoken
BufToken
p5156
(dp5157
g5
I5
sg6
S'That'
p5158
sg8
S'O'
sg9
S'IN'
p5159
sg11
S'that'
p5160
sg13
Nsba(ibuftoken
BufToken
p5161
(dp5162
g5
I6
sg6
S'does'
p5163
sg8
S'O'
sg9
S'VBZ'
p5164
sg11
S'do'
p5165
sg13
Nsba(ibuftoken
BufToken
p5166
(dp5167
g5
I7
sg6
S"n't"
p5168
sg8
S'O'
sg9
S'RB'
p5169
sg11
S'not'
p5170
sg13
Nsba(ibuftoken
BufToken
p5171
(dp5172
g5
I8
sg6
S'matter'
p5173
sg8
S'O'
sg9
S'VB'
p5174
sg11
S'matter'
p5175
sg13
Nsba(ibuftoken
BufToken
p5176
(dp5177
g5
I9
sg6
S'.'
sg8
S'O'
sg9
S'.'
sg11
S'.'
sg13
Nsbaa(lp5178
(ibuftoken
BufToken
p5179
(dp5180
g5
I0
sg6
S'Draw'
p5181
sg8
S'O'
sg9
S'VB'
p5182
sg11
S'draw'
p5183
sg13
Nsba(ibuftoken
BufToken
p5184
(dp5185
g5
I1
sg6
S'me'
p5186
sg8
S'O'
sg9
S'PRP'
p5187
sg11
S'I'
sg13
Nsba(ibuftoken
BufToken
p5188
(dp5189
g5
I2
sg6
S'a'
sg8
S'O'
sg9
S'DT'
p5190
sg11
S'a'
sg13
Nsba(ibuftoken
BufToken
p5191
(dp5192
g5
I3
sg6
S'sheep'
p5193
sg8
S'O'
sg9
S'NN'
p5194
sg11
S'sheep'
p5195
sg13
Nsba(ibuftoken
BufToken
p5196
(dp5197
g5
I4
sg6
S'...'
p5198
sg8
S'O'
sg9
S':'
sg11
S'...'
p5199
sg13
Nsba(ibuftoken
BufToken
p5200
(dp5201
g5
I5
sg6
S'\xe2\x80\x9d'
p5202
sg8
S'NUMBER'
p5203
sg9
S'CD'
p5204
sg11
S'\xe2\x80\x9d'
p5205
sg13
Nsbaa(lp5206
(ibuftoken
BufToken
p5207
(dp5208
g5
I0
sg6
S'But'
p5209
sg8
S'O'
sg9
S'CC'
p5210
sg11
S'but'
p5211
sg13
Nsba(ibuftoken
BufToken
p5212
(dp5213
g5
I1
sg6
S'I'
sg8
S'O'
sg9
S'PRP'
p5214
sg11
S'I'
sg13
Nsba(ibuftoken
BufToken
p5215
(dp5216
g5
I2
sg6
S'had'
p5217
sg8
S'O'
sg9
S'VBD'
p5218
sg11
S'have'
p5219
sg13
Nsba(ibuftoken
BufToken
p5220
(dp5221
g5
I3
sg6
S'never'
p5222
sg8
S'O'
sg9
S'RB'
p5223
sg11
S'never'
p5224
sg13
Nsba(ibuftoken
BufToken
p5225
(dp5226
g5
I4
sg6
S'drawn'
p5227
sg8
S'O'
sg9
S'VBN'
p5228
sg11
S'draw'
p5229
sg13
Nsba(ibuftoken
BufToken
p5230
(dp5231
g5
I5
sg6
S'a'
sg8
S'O'
sg9
S'DT'
p5232
sg11
S'a'
sg13
Nsba(ibuftoken
BufToken
p5233
(dp5234
g5
I6
sg6
S'sheep'
p5235
sg8
S'O'
sg9
S'NN'
p5236
sg11
S'sheep'
p5237
sg13
Nsba(ibuftoken
BufToken
p5238
(dp5239
g5
I7
sg6
S'.'
sg8
S'O'
sg9
S'.'
sg11
S'.'
sg13
Nsbaa(lp5240
(ibuftoken
BufToken
p5241
(dp5242
g5
I0
sg6
S'So'
p5243
sg8
S'O'
sg9
S'IN'
p5244
sg11
S'so'
p5245
sg13
Nsba(ibuftoken
BufToken
p5246
(dp5247
g5
I1
sg6
S'I'
sg8
S'O'
sg9
S'PRP'
p5248
sg11
S'I'
sg13
Nsba(ibuftoken
BufToken
p5249
(dp5250
g5
I2
sg6
S'drew'
p5251
sg8
S'O'
sg9
S'VBD'
p5252
sg11
S'draw'
p5253
sg13
Nsba(ibuftoken
BufToken
p5254
(dp5255
g5
I3
sg6
S'for'
p5256
sg8
S'O'
sg9
S'IN'
p5257
sg11
S'for'
p5258
sg13
Nsba(ibuftoken
BufToken
p5259
(dp5260
g5
I4
sg6
S'him'
p5261
sg8
S'O'
sg9
S'PRP'
p5262
sg11
S'he'
p5263
sg13
Nsba(ibuftoken
BufToken
p5264
(dp5265
g5
I5
sg6
S'1'
sg8
S'NUMBER'
p5266
sg9
S'CD'
p5267
sg11
S'one'
p5268
sg13
Nsba(ibuftoken
BufToken
p5269
(dp5270
g5
I6
sg6
S'of'
p5271
sg8
S'O'
sg9
S'IN'
p5272
sg11
S'of'
p5273
sg13
Nsba(ibuftoken
BufToken
p5274
(dp5275
g5
I7
sg6
S'the'
p5276
sg8
S'O'
sg9
S'DT'
p5277
sg11
S'the'
p5278
sg13
Nsba(ibuftoken
BufToken
p5279
(dp5280
g5
I8
sg6
S'2'
sg8
S'NUMBER'
p5281
sg9
S'CD'
p5282
sg11
S'two'
p5283
sg13
Nsba(ibuftoken
BufToken
p5284
(dp5285
g5
I9
sg6
S'pictures'
p5286
sg8
S'O'
sg9
S'NNS'
p5287
sg11
S'picture'
p5288
sg13
Nsba(ibuftoken
BufToken
p5289
(dp5290
g5
I10
sg6
S'I'
sg8
S'O'
sg9
S'PRP'
p5291
sg11
S'I'
sg13
Nsba(ibuftoken
BufToken
p5292
(dp5293
g5
I11
sg6
S'had'
p5294
sg8
S'O'
sg9
S'VBD'
p5295
sg11
S'have'
p5296
sg13
Nsba(ibuftoken
BufToken
p5297
(dp5298
g5
I12
sg6
S'drawn'
p5299
sg8
S'O'
sg9
S'VBN'
p5300
sg11
S'draw'
p5301
sg13
Nsba(ibuftoken
BufToken
p5302
(dp5303
g5
I13
sg6
S'so'
p5304
sg8
S'O'
sg9
S'RB'
p5305
sg11
S'so'
p5306
sg13
Nsba(ibuftoken
BufToken
p5307
(dp5308
g5
I14
sg6
S'often'
p5309
sg8
S'O'
sg9
S'RB'
p5310
sg11
S'often'
p5311
sg13
Nsba(ibuftoken
BufToken
p5312
(dp5313
g5
I15
sg6
S'.'
sg8
S'O'
sg9
S'.'
sg11
S'.'
sg13
Nsbaa(lp5314
(ibuftoken
BufToken
p5315
(dp5316
g5
I0
sg6
S'It'
p5317
sg8
S'O'
sg9
S'PRP'
p5318
sg11
S'it'
p5319
sg13
Nsba(ibuftoken
BufToken
p5320
(dp5321
g5
I1
sg6
S'was'
p5322
sg8
S'O'
sg9
S'VBD'
p5323
sg11
S'be'
p5324
sg13
Nsba(ibuftoken
BufToken
p5325
(dp5326
g5
I2
sg6
S'that'
p5327
sg8
S'O'
sg9
S'IN'
p5328
sg11
S'that'
p5329
sg13
Nsba(ibuftoken
BufToken
p5330
(dp5331
g5
I3
sg6
S'of'
p5332
sg8
S'O'
sg9
S'IN'
p5333
sg11
S'of'
p5334
sg13
Nsba(ibuftoken
BufToken
p5335
(dp5336
g5
I4
sg6
S'the'
p5337
sg8
S'O'
sg9
S'DT'
p5338
sg11
S'the'
p5339
sg13
Nsba(ibuftoken
BufToken
p5340
(dp5341
g5
I5
sg6
S'boa'
p5342
sg8
S'O'
sg9
S'NN'
p5343
sg11
S'boa'
p5344
sg13
Nsba(ibuftoken
BufToken
p5345
(dp5346
g5
I6
sg6
S'constrictor'
p5347
sg8
S'O'
sg9
S'NN'
p5348
sg11
S'constrictor'
p5349
sg13
Nsba(ibuftoken
BufToken
p5350
(dp5351
g5
I7
sg6
S'from'
p5352
sg8
S'O'
sg9
S'IN'
p5353
sg11
S'from'
p5354
sg13
Nsba(ibuftoken
BufToken
p5355
(dp5356
g5
I8
sg6
S'the'
p5357
sg8
S'O'
sg9
S'DT'
p5358
sg11
S'the'
p5359
sg13
Nsba(ibuftoken
BufToken
p5360
(dp5361
g5
I9
sg6
S'outside'
p5362
sg8
S'O'
sg9
S'NN'
p5363
sg11
S'outside'
p5364
sg13
Nsba(ibuftoken
BufToken
p5365
(dp5366
g5
I10
sg6
S'.'
sg8
S'O'
sg9
S'.'
sg11
S'.'
sg13
Nsbaa(lp5367
(ibuftoken
BufToken
p5368
(dp5369
g5
I0
sg6
S'And'
p5370
sg8
S'O'
sg9
S'CC'
p5371
sg11
S'and'
p5372
sg13
Nsba(ibuftoken
BufToken
p5373
(dp5374
g5
I1
sg6
S'I'
sg8
S'O'
sg9
S'PRP'
p5375
sg11
S'I'
sg13
Nsba(ibuftoken
BufToken
p5376
(dp5377
g5
I2
sg6
S'was'
p5378
sg8
S'O'
sg9
S'VBD'
p5379
sg11
S'be'
p5380
sg13
Nsba(ibuftoken
BufToken
p5381
(dp5382
g5
I3
sg6
S'astounded'
p5383
sg8
S'O'
sg9
S'JJ'
p5384
sg11
S'astounded'
p5385
sg13
Nsba(ibuftoken
BufToken
p5386
(dp5387
g5
I4
sg6
S'to'
p5388
sg8
S'O'
sg9
S'TO'
p5389
sg11
S'to'
p5390
sg13
Nsba(ibuftoken
BufToken
p5391
(dp5392
g5
I5
sg6
S'hear'
p5393
sg8
S'O'
sg9
S'VB'
p5394
sg11
S'hear'
p5395
sg13
Nsba(ibuftoken
BufToken
p5396
(dp5397
g5
I6
sg6
S'the'
p5398
sg8
S'O'
sg9
S'DT'
p5399
sg11
S'the'
p5400
sg13
Nsba(ibuftoken
BufToken
p5401
(dp5402
g5
I7
sg6
S'little'
p5403
sg8
S'O'
sg9
S'JJ'
p5404
sg11
S'little'
p5405
sg13
Nsba(ibuftoken
BufToken
p5406
(dp5407
g5
I8
sg6
S'fellow'
p5408
sg8
S'O'
sg9
S'JJ'
p5409
sg11
S'fellow'
p5410
sg13
Nsba(ibuftoken
BufToken
p5411
(dp5412
g5
I9
sg6
S'greet'
p5413
sg8
S'O'
sg9
S'VB'
p5414
sg11
S'greet'
p5415
sg13
Nsba(ibuftoken
BufToken
p5416
(dp5417
g5
I10
sg6
S'it'
p5418
sg8
S'O'
sg9
S'PRP'
p5419
sg11
S'it'
p5420
sg13
Nsba(ibuftoken
BufToken
p5421
(dp5422
g5
I11
sg6
S'with'
p5423
sg8
S'O'
sg9
S'IN'
p5424
sg11
S'with'
p5425
sg13
Nsba(ibuftoken
BufToken
p5426
(dp5427
g5
I12
sg6
S','
sg8
S'O'
sg9
S','
sg11
S','
sg13
Nsba(ibuftoken
BufToken
p5428
(dp5429
g5
I13
sg6
S'"'
sg8
S'O'
sg9
S'``'
p5430
sg11
S'"'
sg13
Nsba(ibuftoken
BufToken
p5431
(dp5432
g5
I14
sg6
S'No'
p5433
sg8
S'O'
sg9
S'UH'
p5434
sg11
S'no'
p5435
sg13
Nsba(ibuftoken
BufToken
p5436
(dp5437
g5
I15
sg6
S','
sg8
S'O'
sg9
S','
sg11
S','
sg13
Nsba(ibuftoken
BufToken
p5438
(dp5439
g5
I16
sg6
S'no'
p5440
sg8
S'O'
sg9
S'DT'
p5441
sg11
S'no'
p5442
sg13
Nsba(ibuftoken
BufToken
p5443
(dp5444
g5
I17
sg6
S','
sg8
S'O'
sg9
S','
sg11
S','
sg13
Nsba(ibuftoken
BufToken
p5445
(dp5446
g5
I18
sg6
S'no'
p5447
sg8
S'O'
sg9
S'DT'
p5448
sg11
S'no'
p5449
sg13
Nsba(ibuftoken
BufToken
p5450
(dp5451
g5
I19
sg6
S'!'
sg8
S'O'
sg9
S'.'
sg11
S'!'
sg13
Nsbaa(lp5452
(ibuftoken
BufToken
p5453
(dp5454
g5
I0
sg6
S'I'
sg8
S'O'
sg9
S'PRP'
p5455
sg11
S'I'
sg13
Nsba(ibuftoken
BufToken
p5456
(dp5457
g5
I1
sg6
S'do'
p5458
sg8
S'O'
sg9
S'VBP'
p5459
sg11
S'do'
p5460
sg13
Nsba(ibuftoken
BufToken
p5461
(dp5462
g5
I2
sg6
S'not'
p5463
sg8
S'O'
sg9
S'RB'
p5464
sg11
S'not'
p5465
sg13
Nsba(ibuftoken
BufToken
p5466
(dp5467
g5
I3
sg6
S'want'
p5468
sg8
S'O'
sg9
S'VB'
p5469
sg11
S'want'
p5470
sg13
Nsba(ibuftoken
BufToken
p5471
(dp5472
g5
I4
sg6
S'an'
p5473
sg8
S'O'
sg9
S'DT'
p5474
sg11
S'a'
sg13
Nsba(ibuftoken
BufToken
p5475
(dp5476
g5
I5
sg6
S'elephant'
p5477
sg8
S'O'
sg9
S'NN'
p5478
sg11
S'elephant'
p5479
sg13
Nsba(ibuftoken
BufToken
p5480
(dp5481
g5
I6
sg6
S'inside'
p5482
sg8
S'O'
sg9
S'IN'
p5483
sg11
S'inside'
p5484
sg13
Nsba(ibuftoken
BufToken
p5485
(dp5486
g5
I7
sg6
S'a'
sg8
S'O'
sg9
S'DT'
p5487
sg11
S'a'
sg13
Nsba(ibuftoken
BufToken
p5488
(dp5489
g5
I8
sg6
S'boa'
p5490
sg8
S'O'
sg9
S'NN'
p5491
sg11
S'boa'
p5492
sg13
Nsba(ibuftoken
BufToken
p5493
(dp5494
g5
I9
sg6
S'constrictor'
p5495
sg8
S'O'
sg9
S'NN'
p5496
sg11
S'constrictor'
p5497
sg13
Nsba(ibuftoken
BufToken
p5498
(dp5499
g5
I10
sg6
S'.'
sg8
S'O'
sg9
S'.'
sg11
S'.'
sg13
Nsbaa(lp5500
(ibuftoken
BufToken
p5501
(dp5502
g5
I0
sg6
S'A'
sg8
S'O'
sg9
S'DT'
p5503
sg11
S'a'
sg13
Nsba(ibuftoken
BufToken
p5504
(dp5505
g5
I1
sg6
S'boa'
p5506
sg8
S'O'
sg9
S'NN'
p5507
sg11
S'boa'
p5508
sg13
Nsba(ibuftoken
BufToken
p5509
(dp5510
g5
I2
sg6
S'constrictor'
p5511
sg8
S'O'
sg9
S'NN'
p5512
sg11
S'constrictor'
p5513
sg13
Nsba(ibuftoken
BufToken
p5514
(dp5515
g5
I3
sg6
S'is'
p5516
sg8
S'O'
sg9
S'VBZ'
p5517
sg11
S'be'
p5518
sg13
Nsba(ibuftoken
BufToken
p5519
(dp5520
g5
I4
sg6
S'a'
sg8
S'O'
sg9
S'DT'
p5521
sg11
S'a'
sg13
Nsba(ibuftoken
BufToken
p5522
(dp5523
g5
I5
sg6
S'very'
p5524
sg8
S'O'
sg9
S'RB'
p5525
sg11
S'very'
p5526
sg13
Nsba(ibuftoken
BufToken
p5527
(dp5528
g5
I6
sg6
S'dangerous'
p5529
sg8
S'O'
sg9
S'JJ'
p5530
sg11
S'dangerous'
p5531
sg13
Nsba(ibuftoken
BufToken
p5532
(dp5533
g5
I7
sg6
S'creature'
p5534
sg8
S'O'
sg9
S'NN'
p5535
sg11
S'creature'
p5536
sg13
Nsba(ibuftoken
BufToken
p5537
(dp5538
g5
I8
sg6
S','
sg8
S'O'
sg9
S','
sg11
S','
sg13
Nsba(ibuftoken
BufToken
p5539
(dp5540
g5
I9
sg6
S'and'
p5541
sg8
S'O'
sg9
S'CC'
p5542
sg11
S'and'
p5543
sg13
Nsba(ibuftoken
BufToken
p5544
(dp5545
g5
I10
sg6
S'an'
p5546
sg8
S'O'
sg9
S'DT'
p5547
sg11
S'a'
sg13
Nsba(ibuftoken
BufToken
p5548
(dp5549
g5
I11
sg6
S'elephant'
p5550
sg8
S'O'
sg9
S'NN'
p5551
sg11
S'elephant'
p5552
sg13
Nsba(ibuftoken
BufToken
p5553
(dp5554
g5
I12
sg6
S'is'
p5555
sg8
S'O'
sg9
S'VBZ'
p5556
sg11
S'be'
p5557
sg13
Nsba(ibuftoken
BufToken
p5558
(dp5559
g5
I13
sg6
S'very'
p5560
sg8
S'O'
sg9
S'RB'
p5561
sg11
S'very'
p5562
sg13
Nsba(ibuftoken
BufToken
p5563
(dp5564
g5
I14
sg6
S'cumbersome'
p5565
sg8
S'O'
sg9
S'JJ'
p5566
sg11
S'cumbersome'
p5567
sg13
Nsba(ibuftoken
BufToken
p5568
(dp5569
g5
I15
sg6
S'.'
sg8
S'O'
sg9
S'.'
sg11
S'.'
sg13
Nsbaa(lp5570
(ibuftoken
BufToken
p5571
(dp5572
g5
I0
sg6
S'Where'
p5573
sg8
S'O'
sg9
S'WRB'
p5574
sg11
S'where'
p5575
sg13
Nsba(ibuftoken
BufToken
p5576
(dp5577
g5
I1
sg6
S'I'
sg8
S'O'
sg9
S'PRP'
p5578
sg11
S'I'
sg13
Nsba(ibuftoken
BufToken
p5579
(dp5580
g5
I2
sg6
S'live'
p5581
sg8
S'O'
sg9
S'VBP'
p5582
sg11
S'live'
p5583
sg13
Nsba(ibuftoken
BufToken
p5584
(dp5585
g5
I3
sg6
S','
sg8
S'O'
sg9
S','
sg11
S','
sg13
Nsba(ibuftoken
BufToken
p5586
(dp5587
g5
I4
sg6
S'everything'
p5588
sg8
S'O'
sg9
S'NN'
p5589
sg11
S'everything'
p5590
sg13
Nsba(ibuftoken
BufToken
p5591
(dp5592
g5
I5
sg6
S'is'
p5593
sg8
S'O'
sg9
S'VBZ'
p5594
sg11
S'be'
p5595
sg13
Nsba(ibuftoken
BufToken
p5596
(dp5597
g5
I6
sg6
S'very'
p5598
sg8
S'O'
sg9
S'RB'
p5599
sg11
S'very'
p5600
sg13
Nsba(ibuftoken
BufToken
p5601
(dp5602
g5
I7
sg6
S'small'
p5603
sg8
S'O'
sg9
S'JJ'
p5604
sg11
S'small'
p5605
sg13
Nsba(ibuftoken
BufToken
p5606
(dp5607
g5
I8
sg6
S'.'
sg8
S'O'
sg9
S'.'
sg11
S'.'
sg13
Nsbaa(lp5608
(ibuftoken
BufToken
p5609
(dp5610
g5
I0
sg6
S'What'
p5611
sg8
S'O'
sg9
S'WP'
p5612
sg11
S'what'
p5613
sg13
Nsba(ibuftoken
BufToken
p5614
(dp5615
g5
I1
sg6
S'I'
sg8
S'O'
sg9
S'PRP'
p5616
sg11
S'I'
sg13
Nsba(ibuftoken
BufToken
p5617
(dp5618
g5
I2
sg6
S'need'
p5619
sg8
S'O'
sg9
S'VBP'
p5620
sg11
S'need'
p5621
sg13
Nsba(ibuftoken
BufToken
p5622
(dp5623
g5
I3
sg6
S'is'
p5624
sg8
S'O'
sg9
S'VBZ'
p5625
sg11
S'be'
p5626
sg13
Nsba(ibuftoken
BufToken
p5627
(dp5628
g5
I4
sg6
S'a'
sg8
S'O'
sg9
S'DT'
p5629
sg11
S'a'
sg13
Nsba(ibuftoken
BufToken
p5630
(dp5631
g5
I5
sg6
S'sheep'
p5632
sg8
S'O'
sg9
S'NN'
p5633
sg11
S'sheep'
p5634
sg13
Nsba(ibuftoken
BufToken
p5635
(dp5636
g5
I6
sg6
S'.'
sg8
S'O'
sg9
S'.'
sg11
S'.'
sg13
Nsbaa(lp5637
(ibuftoken
BufToken
p5638
(dp5639
g5
I0
sg6
S'Draw'
p5640
sg8
S'O'
sg9
S'VB'
p5641
sg11
S'draw'
p5642
sg13
Nsba(ibuftoken
BufToken
p5643
(dp5644
g5
I1
sg6
S'me'
p5645
sg8
S'O'
sg9
S'PRP'
p5646
sg11
S'I'
sg13
Nsba(ibuftoken
BufToken
p5647
(dp5648
g5
I2
sg6
S'a'
sg8
S'O'
sg9
S'DT'
p5649
sg11
S'a'
sg13
Nsba(ibuftoken
BufToken
p5650
(dp5651
g5
I3
sg6
S'sheep'
p5652
sg8
S'O'
sg9
S'NN'
p5653
sg11
S'sheep'
p5654
sg13
Nsba(ibuftoken
BufToken
p5655
(dp5656
g5
I4
sg6
S'.'
sg8
S'O'
sg9
S'.'
sg11
S'.'
sg13
Nsba(ibuftoken
BufToken
p5657
(dp5658
g5
I5
sg6
S'\xe2\x80\x9d'
p5659
sg8
S'O'
sg9
S'SYM'
p5660
sg11
S'\xe2\x80\x9d'
p5661
sg13
Nsbaa(lp5662
(ibuftoken
BufToken
p5663
(dp5664
g5
I0
sg6
S'So'
p5665
sg8
S'O'
sg9
S'RB'
p5666
sg11
S'so'
p5667
sg13
Nsba(ibuftoken
BufToken
p5668
(dp5669
g5
I1
sg6
S'then'
p5670
sg8
S'O'
sg9
S'RB'
p5671
sg11
S'then'
p5672
sg13
Nsba(ibuftoken
BufToken
p5673
(dp5674
g5
I2
sg6
S'I'
sg8
S'O'
sg9
S'PRP'
p5675
sg11
S'I'
sg13
Nsba(ibuftoken
BufToken
p5676
(dp5677
g5
I3
sg6
S'made'
p5678
sg8
S'O'
sg9
S'VBD'
p5679
sg11
S'make'
p5680
sg13
Nsba(ibuftoken
BufToken
p5681
(dp5682
g5
I4
sg6
S'a'
sg8
S'O'
sg9
S'DT'
p5683
sg11
S'a'
sg13
Nsba(ibuftoken
BufToken
p5684
(dp5685
g5
I5
sg6
S'drawing'
p5686
sg8
S'O'
sg9
S'NN'
p5687
sg11
S'drawing'
p5688
sg13
Nsba(ibuftoken
BufToken
p5689
(dp5690
g5
I6
sg6
S'.'
sg8
S'O'
sg9
S'.'
sg11
S'.'
sg13
Nsbaa(lp5691
(ibuftoken
BufToken
p5692
(dp5693
g5
I0
sg6
S'He'
p5694
sg8
S'O'
sg9
S'PRP'
p5695
sg11
S'he'
p5696
sg13
Nsba(ibuftoken
BufToken
p5697
(dp5698
g5
I1
sg6
S'looked'
p5699
sg8
S'O'
sg9
S'VBD'
p5700
sg11
S'look'
p5701
sg13
Nsba(ibuftoken
BufToken
p5702
(dp5703
g5
I2
sg6
S'at'
p5704
sg8
S'O'
sg9
S'IN'
p5705
sg11
S'at'
p5706
sg13
Nsba(ibuftoken
BufToken
p5707
(dp5708
g5
I3
sg6
S'it'
p5709
sg8
S'O'
sg9
S'PRP'
p5710
sg11
S'it'
p5711
sg13
Nsba(ibuftoken
BufToken
p5712
(dp5713
g5
I4
sg6
S'carefully'
p5714
sg8
S'O'
sg9
S'RB'
p5715
sg11
S'carefully'
p5716
sg13
Nsba(ibuftoken
BufToken
p5717
(dp5718
g5
I5
sg6
S','
sg8
S'O'
sg9
S','
sg11
S','
sg13
Nsba(ibuftoken
BufToken
p5719
(dp5720
g5
I6
sg6
S'then'
p5721
sg8
S'O'
sg9
S'RB'
p5722
sg11
S'then'
p5723
sg13
Nsba(ibuftoken
BufToken
p5724
(dp5725
g5
I7
sg6
S'he'
p5726
sg8
S'O'
sg9
S'PRP'
p5727
sg11
S'he'
p5728
sg13
Nsba(ibuftoken
BufToken
p5729
(dp5730
g5
I8
sg6
S'said'
p5731
sg8
S'O'
sg9
S'VBD'
p5732
sg11
S'say'
p5733
sg13
Nsba(ibuftoken
BufToken
p5734
(dp5735
g5
I9
sg6
S':'
sg8
S'O'
sg9
S':'
sg11
S':'
sg13
Nsba(ibuftoken
BufToken
p5736
(dp5737
g5
I10
sg6
S'"'
sg8
S'O'
sg9
S'``'
p5738
sg11
S'"'
sg13
Nsba(ibuftoken
BufToken
p5739
(dp5740
g5
I11
sg6
S'No'
p5741
sg8
S'O'
sg9
S'UH'
p5742
sg11
S'no'
p5743
sg13
Nsba(ibuftoken
BufToken
p5744
(dp5745
g5
I12
sg6
S'.'
sg8
S'O'
sg9
S'.'
sg11
S'.'
sg13
Nsbaa(lp5746
(ibuftoken
BufToken
p5747
(dp5748
g5
I0
sg6
S'This'
p5749
sg8
S'O'
sg9
S'DT'
p5750
sg11
S'this'
p5751
sg13
Nsba(ibuftoken
BufToken
p5752
(dp5753
g5
I1
sg6
S'sheep'
p5754
sg8
S'O'
sg9
S'NN'
p5755
sg11
S'sheep'
p5756
sg13
Nsba(ibuftoken
BufToken
p5757
(dp5758
g5
I2
sg6
S'is'
p5759
sg8
S'O'
sg9
S'VBZ'
p5760
sg11
S'be'
p5761
sg13
Nsba(ibuftoken
BufToken
p5762
(dp5763
g5
I3
sg6
S'already'
p5764
sg8
S'O'
sg9
S'RB'
p5765
sg11
S'already'
p5766
sg13
Nsba(ibuftoken
BufToken
p5767
(dp5768
g5
I4
sg6
S'very'
p5769
sg8
S'O'
sg9
S'RB'
p5770
sg11
S'very'
p5771
sg13
Nsba(ibuftoken
BufToken
p5772
(dp5773
g5
I5
sg6
S'sickly'
p5774
sg8
S'O'
sg9
S'JJ'
p5775
sg11
S'sickly'
p5776
sg13
Nsba(ibuftoken
BufToken
p5777
(dp5778
g5
I6
sg6
S'.'
sg8
S'O'
sg9
S'.'
sg11
S'.'
sg13
Nsbaa(lp5779
(ibuftoken
BufToken
p5780
(dp5781
g5
I0
sg6
S'Make'
p5782
sg8
S'O'
sg9
S'VB'
p5783
sg11
S'make'
p5784
sg13
Nsba(ibuftoken
BufToken
p5785
(dp5786
g5
I1
sg6
S'me'
p5787
sg8
S'O'
sg9
S'PRP'
p5788
sg11
S'I'
sg13
Nsba(ibuftoken
BufToken
p5789
(dp5790
g5
I2
sg6
S'another'
p5791
sg8
S'O'
sg9
S'DT'
p5792
sg11
S'another'
p5793
sg13
Nsba(ibuftoken
BufToken
p5794
(dp5795
g5
I3
sg6
S'.'
sg8
S'O'
sg9
S'.'
sg11
S'.'
sg13
Nsba(ibuftoken
BufToken
p5796
(dp5797
g5
I4
sg6
S'\xe2\x80\x9d'
p5798
sg8
S'O'
sg9
S'SYM'
p5799
sg11
S'\xe2\x80\x9d'
p5800
sg13
Nsbaa(lp5801
(ibuftoken
BufToken
p5802
(dp5803
g5
I0
sg6
S'So'
p5804
sg8
S'O'
sg9
S'IN'
p5805
sg11
S'so'
p5806
sg13
Nsba(ibuftoken
BufToken
p5807
(dp5808
g5
I1
sg6
S'I'
sg8
S'O'
sg9
S'PRP'
p5809
sg11
S'I'
sg13
Nsba(ibuftoken
BufToken
p5810
(dp5811
g5
I2
sg6
S'made'
p5812
sg8
S'O'
sg9
S'VBD'
p5813
sg11
S'make'
p5814
sg13
Nsba(ibuftoken
BufToken
p5815
(dp5816
g5
I3
sg6
S'another'
p5817
sg8
S'O'
sg9
S'DT'
p5818
sg11
S'another'
p5819
sg13
Nsba(ibuftoken
BufToken
p5820
(dp5821
g5
I4
sg6
S'drawing'
p5822
sg8
S'O'
sg9
S'NN'
p5823
sg11
S'drawing'
p5824
sg13
Nsba(ibuftoken
BufToken
p5825
(dp5826
g5
I5
sg6
S'.'
sg8
S'O'
sg9
S'.'
sg11
S'.'
sg13
Nsbaa(lp5827
(ibuftoken
BufToken
p5828
(dp5829
g5
I0
sg6
S'My'
p5830
sg8
S'O'
sg9
S'PRP$'
p5831
sg11
S'my'
p5832
sg13
Nsba(ibuftoken
BufToken
p5833
(dp5834
g5
I1
sg6
S'friend'
p5835
sg8
S'O'
sg9
S'NN'
p5836
sg11
S'friend'
p5837
sg13
Nsba(ibuftoken
BufToken
p5838
(dp5839
g5
I2
sg6
S'smiled'
p5840
sg8
S'O'
sg9
S'VBD'
p5841
sg11
S'smile'
p5842
sg13
Nsba(ibuftoken
BufToken
p5843
(dp5844
g5
I3
sg6
S'gently'
p5845
sg8
S'O'
sg9
S'RB'
p5846
sg11
S'gently'
p5847
sg13
Nsba(ibuftoken
BufToken
p5848
(dp5849
g5
I4
sg6
S'and'
p5850
sg8
S'O'
sg9
S'CC'
p5851
sg11
S'and'
p5852
sg13
Nsba(ibuftoken
BufToken
p5853
(dp5854
g5
I5
sg6
S'indulgently'
p5855
sg8
S'O'
sg9
S'RB'
p5856
sg11
S'indulgently'
p5857
sg13
Nsba(ibuftoken
BufToken
p5858
(dp5859
g5
I6
sg6
S'.'
sg8
S'O'
sg9
S'.'
sg11
S'.'
sg13
Nsbaa(lp5860
(ibuftoken
BufToken
p5861
(dp5862
g5
I0
sg6
S'"'
sg8
S'O'
sg9
S'``'
p5863
sg11
S'"'
sg13
Nsba(ibuftoken
BufToken
p5864
(dp5865
g5
I1
sg6
S'You'
p5866
sg8
S'O'
sg9
S'PRP'
p5867
sg11
S'you'
p5868
sg13
Nsba(ibuftoken
BufToken
p5869
(dp5870
g5
I2
sg6
S'see'
p5871
sg8
S'O'
sg9
S'VBP'
p5872
sg11
S'see'
p5873
sg13
Nsba(ibuftoken
BufToken
p5874
(dp5875
g5
I3
sg6
S'yourself'
p5876
sg8
S'O'
sg9
S'PRP'
p5877
sg11
S'yourself'
p5878
sg13
Nsba(ibuftoken
BufToken
p5879
(dp5880
g5
I4
sg6
S','
sg8
S'O'
sg9
S','
sg11
S','
sg13
Nsba(ibuftoken
BufToken
p5881
(dp5882
g5
I5
sg6
S'"'
sg8
S'O'
sg9
S'``'
p5883
sg11
S'"'
sg13
Nsba(ibuftoken
BufToken
p5884
(dp5885
g5
I6
sg6
S'he'
p5886
sg8
S'O'
sg9
S'PRP'
p5887
sg11
S'he'
p5888
sg13
Nsba(ibuftoken
BufToken
p5889
(dp5890
g5
I7
sg6
S'said'
p5891
sg8
S'O'
sg9
S'VBD'
p5892
sg11
S'say'
p5893
sg13
Nsba(ibuftoken
BufToken
p5894
(dp5895
g5
I8
sg6
S','
sg8
S'O'
sg9
S','
sg11
S','
sg13
Nsba(ibuftoken
BufToken
p5896
(dp5897
g5
I9
sg6
S'"'
sg8
S'O'
sg9
S'``'
p5898
sg11
S'"'
sg13
Nsba(ibuftoken
BufToken
p5899
(dp5900
g5
I10
sg6
S'that'
p5901
sg8
S'O'
sg9
S'IN'
p5902
sg11
S'that'
p5903
sg13
Nsba(ibuftoken
BufToken
p5904
(dp5905
g5
I11
sg6
S'this'
p5906
sg8
S'O'
sg9
S'DT'
p5907
sg11
S'this'
p5908
sg13
Nsba(ibuftoken
BufToken
p5909
(dp5910
g5
I12
sg6
S'is'
p5911
sg8
S'O'
sg9
S'VBZ'
p5912
sg11
S'be'
p5913
sg13
Nsba(ibuftoken
BufToken
p5914
(dp5915
g5
I13
sg6
S'not'
p5916
sg8
S'O'
sg9
S'RB'
p5917
sg11
S'not'
p5918
sg13
Nsba(ibuftoken
BufToken
p5919
(dp5920
g5
I14
sg6
S'a'
sg8
S'O'
sg9
S'DT'
p5921
sg11
S'a'
sg13
Nsba(ibuftoken
BufToken
p5922
(dp5923
g5
I15
sg6
S'sheep'
p5924
sg8
S'O'
sg9
S'NN'
p5925
sg11
S'sheep'
p5926
sg13
Nsba(ibuftoken
BufToken
p5927
(dp5928
g5
I16
sg6
S'.'
sg8
S'O'
sg9
S'.'
sg11
S'.'
sg13
Nsbaa(lp5929
(ibuftoken
BufToken
p5930
(dp5931
g5
I0
sg6
S'This'
p5932
sg8
S'O'
sg9
S'DT'
p5933
sg11
S'this'
p5934
sg13
Nsba(ibuftoken
BufToken
p5935
(dp5936
g5
I1
sg6
S'is'
p5937
sg8
S'O'
sg9
S'VBZ'
p5938
sg11
S'be'
p5939
sg13
Nsba(ibuftoken
BufToken
p5940
(dp5941
g5
I2
sg6
S'a'
sg8
S'O'
sg9
S'DT'
p5942
sg11
S'a'
sg13
Nsba(ibuftoken
BufToken
p5943
(dp5944
g5
I3
sg6
S'ram'
p5945
sg8
S'O'
sg9
S'NN'
p5946
sg11
S'ram'
p5947
sg13
Nsba(ibuftoken
BufToken
p5948
(dp5949
g5
I4
sg6
S'.'
sg8
S'O'
sg9
S'.'
sg11
S'.'
sg13
Nsbaa(lp5950
(ibuftoken
BufToken
p5951
(dp5952
g5
I0
sg6
S'It'
p5953
sg8
S'O'
sg9
S'PRP'
p5954
sg11
S'it'
p5955
sg13
Nsba(ibuftoken
BufToken
p5956
(dp5957
g5
I1
sg6
S'has'
p5958
sg8
S'O'
sg9
S'VBZ'
p5959
sg11
S'have'
p5960
sg13
Nsba(ibuftoken
BufToken
p5961
(dp5962
g5
I2
sg6
S'horns'
p5963
sg8
S'O'
sg9
S'NNS'
p5964
sg11
S'horn'
p5965
sg13
Nsba(ibuftoken
BufToken
p5966
(dp5967
g5
I3
sg6
S'.'
sg8
S'O'
sg9
S'.'
sg11
S'.'
sg13
Nsba(ibuftoken
BufToken
p5968
(dp5969
g5
I4
sg6
S'\xe2\x80\x9d'
p5970
sg8
S'O'
sg9
S'SYM'
p5971
sg11
S'\xe2\x80\x9d'
p5972
sg13
Nsbaa(lp5973
(ibuftoken
BufToken
p5974
(dp5975
g5
I0
sg6
S'So'
p5976
sg8
S'O'
sg9
S'RB'
p5977
sg11
S'so'
p5978
sg13
Nsba(ibuftoken
BufToken
p5979
(dp5980
g5
I1
sg6
S'then'
p5981
sg8
S'O'
sg9
S'RB'
p5982
sg11
S'then'
p5983
sg13
Nsba(ibuftoken
BufToken
p5984
(dp5985
g5
I2
sg6
S'I'
sg8
S'O'
sg9
S'PRP'
p5986
sg11
S'I'
sg13
Nsba(ibuftoken
BufToken
p5987
(dp5988
g5
I3
sg6
S'did'
p5989
sg8
S'O'
sg9
S'VBD'
p5990
sg11
S'do'
p5991
sg13
Nsba(ibuftoken
BufToken
p5992
(dp5993
g5
I4
sg6
S'my'
p5994
sg8
S'O'
sg9
S'PRP$'
p5995
sg11
S'my'
p5996
sg13
Nsba(ibuftoken
BufToken
p5997
(dp5998
g5
I5
sg6
S'drawing'
p5999
sg8
S'O'
sg9
S'NN'
p6000
sg11
S'drawing'
p6001
sg13
Nsba(ibuftoken
BufToken
p6002
(dp6003
g5
I6
sg6
S'over'
p6004
sg8
S'O'
sg9
S'IN'
p6005
sg11
S'over'
p6006
sg13
Nsba(ibuftoken
BufToken
p6007
(dp6008
g5
I7
sg6
S'once'
p6009
sg8
S'DATE'
p6010
sg9
S'RB'
p6011
sg11
S'once'
p6012
sg13
Nsba(ibuftoken
BufToken
p6013
(dp6014
g5
I8
sg6
S'more'
p6015
sg8
S'O'
sg9
S'JJR'
p6016
sg11
S'more'
p6017
sg13
Nsba(ibuftoken
BufToken
p6018
(dp6019
g5
I9
sg6
S'.'
sg8
S'O'
sg9
S'.'
sg11
S'.'
sg13
Nsbaa(lp6020
(ibuftoken
BufToken
p6021
(dp6022
g5
I0
sg6
S'But'
p6023
sg8
S'O'
sg9
S'CC'
p6024
sg11
S'but'
p6025
sg13
Nsba(ibuftoken
BufToken
p6026
(dp6027
g5
I1
sg6
S'it'
p6028
sg8
S'O'
sg9
S'PRP'
p6029
sg11
S'it'
p6030
sg13
Nsba(ibuftoken
BufToken
p6031
(dp6032
g5
I2
sg6
S'was'
p6033
sg8
S'O'
sg9
S'VBD'
p6034
sg11
S'be'
p6035
sg13
Nsba(ibuftoken
BufToken
p6036
(dp6037
g5
I3
sg6
S'rejected'
p6038
sg8
S'O'
sg9
S'VBN'
p6039
sg11
S'reject'
p6040
sg13
Nsba(ibuftoken
BufToken
p6041
(dp6042
g5
I4
sg6
S'too'
p6043
sg8
S'O'
sg9
S'RB'
p6044
sg11
S'too'
p6045
sg13
Nsba(ibuftoken
BufToken
p6046
(dp6047
g5
I5
sg6
S','
sg8
S'O'
sg9
S','
sg11
S','
sg13
Nsba(ibuftoken
BufToken
p6048
(dp6049
g5
I6
sg6
S'just'
p6050
sg8
S'O'
sg9
S'RB'
p6051
sg11
S'just'
p6052
sg13
Nsba(ibuftoken
BufToken
p6053
(dp6054
g5
I7
sg6
S'like'
p6055
sg8
S'O'
sg9
S'IN'
p6056
sg11
S'like'
p6057
sg13
Nsba(ibuftoken
BufToken
p6058
(dp6059
g5
I8
sg6
S'the'
p6060
sg8
S'O'
sg9
S'DT'
p6061
sg11
S'the'
p6062
sg13
Nsba(ibuftoken
BufToken
p6063
(dp6064
g5
I9
sg6
S'others'
p6065
sg8
S'O'
sg9
S'NNS'
p6066
sg11
S'other'
p6067
sg13
Nsba(ibuftoken
BufToken
p6068
(dp6069
g5
I10
sg6
S'.'
sg8
S'O'
sg9
S'.'
sg11
S'.'
sg13
Nsbaa(lp6070
(ibuftoken
BufToken
p6071
(dp6072
g5
I0
sg6
S'"'
sg8
S'O'
sg9
S'``'
p6073
sg11
S'"'
sg13
Nsba(ibuftoken
BufToken
p6074
(dp6075
g5
I1
sg6
S'This'
p6076
sg8
S'O'
sg9
S'DT'
p6077
sg11
S'this'
p6078
sg13
Nsba(ibuftoken
BufToken
p6079
(dp6080
g5
I2
sg6
S'1'
sg8
S'NUMBER'
p6081
sg9
S'NN'
p6082
sg11
S'one'
p6083
sg13
Nsba(ibuftoken
BufToken
p6084
(dp6085
g5
I3
sg6
S'is'
p6086
sg8
S'O'
sg9
S'VBZ'
p6087
sg11
S'be'
p6088
sg13
Nsba(ibuftoken
BufToken
p6089
(dp6090
g5
I4
sg6
S'too'
p6091
sg8
S'O'
sg9
S'RB'
p6092
sg11
S'too'
p6093
sg13
Nsba(ibuftoken
BufToken
p6094
(dp6095
g5
I5
sg6
S'old'
p6096
sg8
S'O'
sg9
S'JJ'
p6097
sg11
S'old'
p6098
sg13
Nsba(ibuftoken
BufToken
p6099
(dp6100
g5
I6
sg6
S'.'
sg8
S'O'
sg9
S'.'
sg11
S'.'
sg13
Nsbaa(lp6101
(ibuftoken
BufToken
p6102
(dp6103
g5
I0
sg6
S'I'
sg8
S'O'
sg9
S'PRP'
p6104
sg11
S'I'
sg13
Nsba(ibuftoken
BufToken
p6105
(dp6106
g5
I1
sg6
S'want'
p6107
sg8
S'O'
sg9
S'VBP'
p6108
sg11
S'want'
p6109
sg13
Nsba(ibuftoken
BufToken
p6110
(dp6111
g5
I2
sg6
S'a'
sg8
S'O'
sg9
S'DT'
p6112
sg11
S'a'
sg13
Nsba(ibuftoken
BufToken
p6113
(dp6114
g5
I3
sg6
S'sheep'
p6115
sg8
S'O'
sg9
S'NN'
p6116
sg11
S'sheep'
p6117
sg13
Nsba(ibuftoken
BufToken
p6118
(dp6119
g5
I4
sg6
S'that'
p6120
sg8
S'O'
sg9
S'WDT'
p6121
sg11
S'that'
p6122
sg13
Nsba(ibuftoken
BufToken
p6123
(dp6124
g5
I5
sg6
S'will'
p6125
sg8
S'O'
sg9
S'MD'
p6126
sg11
S'will'
p6127
sg13
Nsba(ibuftoken
BufToken
p6128
(dp6129
g5
I6
sg6
S'live'
p6130
sg8
S'O'
sg9
S'VB'
p6131
sg11
S'live'
p6132
sg13
Nsba(ibuftoken
BufToken
p6133
(dp6134
g5
I7
sg6
S'a'
sg8
S'O'
sg9
S'DT'
p6135
sg11
S'a'
sg13
Nsba(ibuftoken
BufToken
p6136
(dp6137
g5
I8
sg6
S'long'
p6138
sg8
S'O'
sg9
S'JJ'
p6139
sg11
S'long'
p6140
sg13
Nsba(ibuftoken
BufToken
p6141
(dp6142
g5
I9
sg6
S'time'
p6143
sg8
S'O'
sg9
S'NN'
p6144
sg11
S'time'
p6145
sg13
Nsba(ibuftoken
BufToken
p6146
(dp6147
g5
I10
sg6
S'.'
sg8
S'O'
sg9
S'.'
sg11
S'.'
sg13
Nsba(ibuftoken
BufToken
p6148
(dp6149
g5
I11
sg6
S'\xe2\x80\x9d'
p6150
sg8
S'O'
sg9
S'SYM'
p6151
sg11
S'\xe2\x80\x9d'
p6152
sg13
Nsbaa(lp6153
(ibuftoken
BufToken
p6154
(dp6155
g5
I0
sg6
S'By'
p6156
sg8
S'O'
sg9
S'IN'
p6157
sg11
S'by'
p6158
sg13
Nsba(ibuftoken
BufToken
p6159
(dp6160
g5
I1
sg6
S'this'
p6161
sg8
S'O'
sg9
S'DT'
p6162
sg11
S'this'
p6163
sg13
Nsba(ibuftoken
BufToken
p6164
(dp6165
g5
I2
sg6
S'time'
p6166
sg8
S'O'
sg9
S'NN'
p6167
sg11
S'time'
p6168
sg13
Nsba(ibuftoken
BufToken
p6169
(dp6170
g5
I3
sg6
S'my'
p6171
sg8
S'O'
sg9
S'PRP$'
p6172
sg11
S'my'
p6173
sg13
Nsba(ibuftoken
BufToken
p6174
(dp6175
g5
I4
sg6
S'patience'
p6176
sg8
S'O'
sg9
S'NN'
p6177
sg11
S'patience'
p6178
sg13
Nsba(ibuftoken
BufToken
p6179
(dp6180
g5
I5
sg6
S'was'
p6181
sg8
S'O'
sg9
S'VBD'
p6182
sg11
S'be'
p6183
sg13
Nsba(ibuftoken
BufToken
p6184
(dp6185
g5
I6
sg6
S'exhausted'
p6186
sg8
S'O'
sg9
S'VBN'
p6187
sg11
S'exhaust'
p6188
sg13
Nsba(ibuftoken
BufToken
p6189
(dp6190
g5
I7
sg6
S','
sg8
S'O'
sg9
S','
sg11
S','
sg13
Nsba(ibuftoken
BufToken
p6191
(dp6192
g5
I8
sg6
S'because'
p6193
sg8
S'O'
sg9
S'IN'
p6194
sg11
S'because'
p6195
sg13
Nsba(ibuftoken
BufToken
p6196
(dp6197
g5
I9
sg6
S'I'
sg8
S'O'
sg9
S'PRP'
p6198
sg11
S'I'
sg13
Nsba(ibuftoken
BufToken
p6199
(dp6200
g5
I10
sg6
S'was'
p6201
sg8
S'O'
sg9
S'VBD'
p6202
sg11
S'be'
p6203
sg13
Nsba(ibuftoken
BufToken
p6204
(dp6205
g5
I11
sg6
S'in'
p6206
sg8
S'O'
sg9
S'IN'
p6207
sg11
S'in'
p6208
sg13
Nsba(ibuftoken
BufToken
p6209
(dp6210
g5
I12
sg6
S'a'
sg8
S'O'
sg9
S'DT'
p6211
sg11
S'a'
sg13
Nsba(ibuftoken
BufToken
p6212
(dp6213
g5
I13
sg6
S'hurry'
p6214
sg8
S'O'
sg9
S'NN'
p6215
sg11
S'hurry'
p6216
sg13
Nsba(ibuftoken
BufToken
p6217
(dp6218
g5
I14
sg6
S'to'
p6219
sg8
S'O'
sg9
S'TO'
p6220
sg11
S'to'
p6221
sg13
Nsba(ibuftoken
BufToken
p6222
(dp6223
g5
I15
sg6
S'start'
p6224
sg8
S'O'
sg9
S'VB'
p6225
sg11
S'start'
p6226
sg13
Nsba(ibuftoken
BufToken
p6227
(dp6228
g5
I16
sg6
S'taking'
p6229
sg8
S'O'
sg9
S'VBG'
p6230
sg11
S'take'
p6231
sg13
Nsba(ibuftoken
BufToken
p6232
(dp6233
g5
I17
sg6
S'my'
p6234
sg8
S'O'
sg9
S'PRP$'
p6235
sg11
S'my'
p6236
sg13
Nsba(ibuftoken
BufToken
p6237
(dp6238
g5
I18
sg6
S'engine'
p6239
sg8
S'O'
sg9
S'NN'
p6240
sg11
S'engine'
p6241
sg13
Nsba(ibuftoken
BufToken
p6242
(dp6243
g5
I19
sg6
S'apart'
p6244
sg8
S'O'
sg9
S'RB'
p6245
sg11
S'apart'
p6246
sg13
Nsba(ibuftoken
BufToken
p6247
(dp6248
g5
I20
sg6
S'.'
sg8
S'O'
sg9
S'.'
sg11
S'.'
sg13
Nsbaa(lp6249
(ibuftoken
BufToken
p6250
(dp6251
g5
I0
sg6
S'So'
p6252
sg8
S'O'
sg9
S'IN'
p6253
sg11
S'so'
p6254
sg13
Nsba(ibuftoken
BufToken
p6255
(dp6256
g5
I1
sg6
S'I'
sg8
S'O'
sg9
S'PRP'
p6257
sg11
S'I'
sg13
Nsba(ibuftoken
BufToken
p6258
(dp6259
g5
I2
sg6
S'tossed'
p6260
sg8
S'O'
sg9
S'VBD'
p6261
sg11
S'toss'
p6262
sg13
Nsba(ibuftoken
BufToken
p6263
(dp6264
g5
I3
sg6
S'off'
p6265
sg8
S'O'
sg9
S'RP'
p6266
sg11
S'off'
p6267
sg13
Nsba(ibuftoken
BufToken
p6268
(dp6269
g5
I4
sg6
S'this'
p6270
sg8
S'O'
sg9
S'DT'
p6271
sg11
S'this'
p6272
sg13
Nsba(ibuftoken
BufToken
p6273
(dp6274
g5
I5
sg6
S'drawing'
p6275
sg8
S'O'
sg9
S'NN'
p6276
sg11
S'drawing'
p6277
sg13
Nsba(ibuftoken
BufToken
p6278
(dp6279
g5
I6
sg6
S'.'
sg8
S'O'
sg9
S'.'
sg11
S'.'
sg13
Nsbaa(lp6280
(ibuftoken
BufToken
p6281
(dp6282
g5
I0
sg6
S'And'
p6283
sg8
S'O'
sg9
S'CC'
p6284
sg11
S'and'
p6285
sg13
Nsba(ibuftoken
BufToken
p6286
(dp6287
g5
I1
sg6
S'I'
sg8
S'O'
sg9
S'PRP'
p6288
sg11
S'I'
sg13
Nsba(ibuftoken
BufToken
p6289
(dp6290
g5
I2
sg6
S'threw'
p6291
sg8
S'O'
sg9
S'VBD'
p6292
sg11
S'throw'
p6293
sg13
Nsba(ibuftoken
BufToken
p6294
(dp6295
g5
I3
sg6
S'out'
p6296
sg8
S'O'
sg9
S'RP'
p6297
sg11
S'out'
p6298
sg13
Nsba(ibuftoken
BufToken
p6299
(dp6300
g5
I4
sg6
S'an'
p6301
sg8
S'O'
sg9
S'DT'
p6302
sg11
S'a'
sg13
Nsba(ibuftoken
BufToken
p6303
(dp6304
g5
I5
sg6
S'explanation'
p6305
sg8
S'O'
sg9
S'NN'
p6306
sg11
S'explanation'
p6307
sg13
Nsba(ibuftoken
BufToken
p6308
(dp6309
g5
I6
sg6
S'with'
p6310
sg8
S'O'
sg9
S'IN'
p6311
sg11
S'with'
p6312
sg13
Nsba(ibuftoken
BufToken
p6313
(dp6314
g5
I7
sg6
S'it'
p6315
sg8
S'O'
sg9
S'PRP'
p6316
sg11
S'it'
p6317
sg13
Nsba(ibuftoken
BufToken
p6318
(dp6319
g5
I8
sg6
S'.'
sg8
S'O'
sg9
S'.'
sg11
S'.'
sg13
Nsbaa(lp6320
(ibuftoken
BufToken
p6321
(dp6322
g5
I0
sg6
S'"'
sg8
S'O'
sg9
S'``'
p6323
sg11
S'"'
sg13
Nsba(ibuftoken
BufToken
p6324
(dp6325
g5
I1
sg6
S'This'
p6326
sg8
S'O'
sg9
S'DT'
p6327
sg11
S'this'
p6328
sg13
Nsba(ibuftoken
BufToken
p6329
(dp6330
g5
I2
sg6
S'is'
p6331
sg8
S'O'
sg9
S'VBZ'
p6332
sg11
S'be'
p6333
sg13
Nsba(ibuftoken
BufToken
p6334
(dp6335
g5
I3
sg6
S'only'
p6336
sg8
S'O'
sg9
S'RB'
p6337
sg11
S'only'
p6338
sg13
Nsba(ibuftoken
BufToken
p6339
(dp6340
g5
I4
sg6
S'his'
p6341
sg8
S'O'
sg9
S'PRP$'
p6342
sg11
S'he'
p6343
sg13
Nsba(ibuftoken
BufToken
p6344
(dp6345
g5
I5
sg6
S'box'
p6346
sg8
S'O'
sg9
S'NN'
p6347
sg11
S'box'
p6348
sg13
Nsba(ibuftoken
BufToken
p6349
(dp6350
g5
I6
sg6
S'.'
sg8
S'O'
sg9
S'.'
sg11
S'.'
sg13
Nsbaa(lp6351
(ibuftoken
BufToken
p6352
(dp6353
g5
I0
sg6
S'The'
p6354
sg8
S'O'
sg9
S'DT'
p6355
sg11
S'the'
p6356
sg13
Nsba(ibuftoken
BufToken
p6357
(dp6358
g5
I1
sg6
S'sheep'
p6359
sg8
S'O'
sg9
S'NN'
p6360
sg11
S'sheep'
p6361
sg13
Nsba(ibuftoken
BufToken
p6362
(dp6363
g5
I2
sg6
S'you'
p6364
sg8
S'O'
sg9
S'PRP'
p6365
sg11
S'you'
p6366
sg13
Nsba(ibuftoken
BufToken
p6367
(dp6368
g5
I3
sg6
S'asked'
p6369
sg8
S'O'
sg9
S'VBD'
p6370
sg11
S'ask'
p6371
sg13
Nsba(ibuftoken
BufToken
p6372
(dp6373
g5
I4
sg6
S'for'
p6374
sg8
S'O'
sg9
S'IN'
p6375
sg11
S'for'
p6376
sg13
Nsba(ibuftoken
BufToken
p6377
(dp6378
g5
I5
sg6
S'is'
p6379
sg8
S'O'
sg9
S'VBZ'
p6380
sg11
S'be'
p6381
sg13
Nsba(ibuftoken
BufToken
p6382
(dp6383
g5
I6
sg6
S'inside'
p6384
sg8
S'O'
sg9
S'RB'
p6385
sg11
S'inside'
p6386
sg13
Nsba(ibuftoken
BufToken
p6387
(dp6388
g5
I7
sg6
S'.'
sg8
S'O'
sg9
S'.'
sg11
S'.'
sg13
Nsba(ibuftoken
BufToken
p6389
(dp6390
g5
I8
sg6
S'\xe2\x80\x9d'
p6391
sg8
S'O'
sg9
S'SYM'
p6392
sg11
S'\xe2\x80\x9d'
p6393
sg13
Nsbaa(lp6394
(ibuftoken
BufToken
p6395
(dp6396
g5
I0
sg6
S'I'
sg8
S'O'
sg9
S'PRP'
p6397
sg11
S'I'
sg13
Nsba(ibuftoken
BufToken
p6398
(dp6399
g5
I1
sg6
S'was'
p6400
sg8
S'O'
sg9
S'VBD'
p6401
sg11
S'be'
p6402
sg13
Nsba(ibuftoken
BufToken
p6403
(dp6404
g5
I2
sg6
S'very'
p6405
sg8
S'O'
sg9
S'RB'
p6406
sg11
S'very'
p6407
sg13
Nsba(ibuftoken
BufToken
p6408
(dp6409
g5
I3
sg6
S'surprised'
p6410
sg8
S'O'
sg9
S'JJ'
p6411
sg11
S'surprised'
p6412
sg13
Nsba(ibuftoken
BufToken
p6413
(dp6414
g5
I4
sg6
S'to'
p6415
sg8
S'O'
sg9
S'TO'
p6416
sg11
S'to'
p6417
sg13
Nsba(ibuftoken
BufToken
p6418
(dp6419
g5
I5
sg6
S'see'
p6420
sg8
S'O'
sg9
S'VB'
p6421
sg11
S'see'
p6422
sg13
Nsba(ibuftoken
BufToken
p6423
(dp6424
g5
I6
sg6
S'a'
sg8
S'O'
sg9
S'DT'
p6425
sg11
S'a'
sg13
Nsba(ibuftoken
BufToken
p6426
(dp6427
g5
I7
sg6
S'light'
p6428
sg8
S'O'
sg9
S'JJ'
p6429
sg11
S'light'
p6430
sg13
Nsba(ibuftoken
BufToken
p6431
(dp6432
g5
I8
sg6
S'break'
p6433
sg8
S'O'
sg9
S'NN'
p6434
sg11
S'break'
p6435
sg13
Nsba(ibuftoken
BufToken
p6436
(dp6437
g5
I9
sg6
S'over'
p6438
sg8
S'O'
sg9
S'IN'
p6439
sg11
S'over'
p6440
sg13
Nsba(ibuftoken
BufToken
p6441
(dp6442
g5
I10
sg6
S'the'
p6443
sg8
S'O'
sg9
S'DT'
p6444
sg11
S'the'
p6445
sg13
Nsba(ibuftoken
BufToken
p6446
(dp6447
g5
I11
sg6
S'face'
p6448
sg8
S'O'
sg9
S'NN'
p6449
sg11
S'face'
p6450
sg13
Nsba(ibuftoken
BufToken
p6451
(dp6452
g5
I12
sg6
S'of'
p6453
sg8
S'O'
sg9
S'IN'
p6454
sg11
S'of'
p6455
sg13
Nsba(ibuftoken
BufToken
p6456
(dp6457
g5
I13
sg6
S'my'
p6458
sg8
S'O'
sg9
S'PRP$'
p6459
sg11
S'my'
p6460
sg13
Nsba(ibuftoken
BufToken
p6461
(dp6462
g5
I14
sg6
S'young'
p6463
sg8
S'O'
sg9
S'JJ'
p6464
sg11
S'young'
p6465
sg13
Nsba(ibuftoken
BufToken
p6466
(dp6467
g5
I15
sg6
S'judge'
p6468
sg8
S'O'
sg9
S'NN'
p6469
sg11
S'judge'
p6470
sg13
Nsba(ibuftoken
BufToken
p6471
(dp6472
g5
I16
sg6
S':'
sg8
S'O'
sg9
S':'
sg11
S':'
sg13
Nsba(ibuftoken
BufToken
p6473
(dp6474
g5
I17
sg6
S'"'
sg8
S'O'
sg9
S'``'
p6475
sg11
S'"'
sg13
Nsba(ibuftoken
BufToken
p6476
(dp6477
g5
I18
sg6
S'That'
p6478
sg8
S'O'
sg9
S'WDT'
p6479
sg11
S'that'
p6480
sg13
Nsba(ibuftoken
BufToken
p6481
(dp6482
g5
I19
sg6
S'is'
p6483
sg8
S'O'
sg9
S'VBZ'
p6484
sg11
S'be'
p6485
sg13
Nsba(ibuftoken
BufToken
p6486
(dp6487
g5
I20
sg6
S'exactly'
p6488
sg8
S'O'
sg9
S'RB'
p6489
sg11
S'exactly'
p6490
sg13
Nsba(ibuftoken
BufToken
p6491
(dp6492
g5
I21
sg6
S'the'
p6493
sg8
S'O'
sg9
S'DT'
p6494
sg11
S'the'
p6495
sg13
Nsba(ibuftoken
BufToken
p6496
(dp6497
g5
I22
sg6
S'way'
p6498
sg8
S'O'
sg9
S'NN'
p6499
sg11
S'way'
p6500
sg13
Nsba(ibuftoken
BufToken
p6501
(dp6502
g5
I23
sg6
S'I'
sg8
S'O'
sg9
S'PRP'
p6503
sg11
S'I'
sg13
Nsba(ibuftoken
BufToken
p6504
(dp6505
g5
I24
sg6
S'wanted'
p6506
sg8
S'O'
sg9
S'VBD'
p6507
sg11
S'want'
p6508
sg13
Nsba(ibuftoken
BufToken
p6509
(dp6510
g5
I25
sg6
S'it'
p6511
sg8
S'O'
sg9
S'PRP'
p6512
sg11
S'it'
p6513
sg13
Nsba(ibuftoken
BufToken
p6514
(dp6515
g5
I26
sg6
S'!'
sg8
S'O'
sg9
S'.'
sg11
S'!'
sg13
Nsbaa(lp6516
(ibuftoken
BufToken
p6517
(dp6518
g5
I0
sg6
S'Do'
p6519
sg8
S'O'
sg9
S'VBP'
p6520
sg11
S'do'
p6521
sg13
Nsba(ibuftoken
BufToken
p6522
(dp6523
g5
I1
sg6
S'you'
p6524
sg8
S'O'
sg9
S'PRP'
p6525
sg11
S'you'
p6526
sg13
Nsba(ibuftoken
BufToken
p6527
(dp6528
g5
I2
sg6
S'think'
p6529
sg8
S'O'
sg9
S'VB'
p6530
sg11
S'think'
p6531
sg13
Nsba(ibuftoken
BufToken
p6532
(dp6533
g5
I3
sg6
S'that'
p6534
sg8
S'O'
sg9
S'IN'
p6535
sg11
S'that'
p6536
sg13
Nsba(ibuftoken
BufToken
p6537
(dp6538
g5
I4
sg6
S'this'
p6539
sg8
S'O'
sg9
S'DT'
p6540
sg11
S'this'
p6541
sg13
Nsba(ibuftoken
BufToken
p6542
(dp6543
g5
I5
sg6
S'sheep'
p6544
sg8
S'O'
sg9
S'NN'
p6545
sg11
S'sheep'
p6546
sg13
Nsba(ibuftoken
BufToken
p6547
(dp6548
g5
I6
sg6
S'will'
p6549
sg8
S'O'
sg9
S'MD'
p6550
sg11
S'will'
p6551
sg13
Nsba(ibuftoken
BufToken
p6552
(dp6553
g5
I7
sg6
S'have'
p6554
sg8
S'O'
sg9
S'VB'
p6555
sg11
S'have'
p6556
sg13
Nsba(ibuftoken
BufToken
p6557
(dp6558
g5
I8
sg6
S'to'
p6559
sg8
S'O'
sg9
S'TO'
p6560
sg11
S'to'
p6561
sg13
Nsba(ibuftoken
BufToken
p6562
(dp6563
g5
I9
sg6
S'have'
p6564
sg8
S'O'
sg9
S'VB'
p6565
sg11
S'have'
p6566
sg13
Nsba(ibuftoken
BufToken
p6567
(dp6568
g5
I10
sg6
S'a'
sg8
S'O'
sg9
S'DT'
p6569
sg11
S'a'
sg13
Nsba(ibuftoken
BufToken
p6570
(dp6571
g5
I11
sg6
S'great'
p6572
sg8
S'O'
sg9
S'JJ'
p6573
sg11
S'great'
p6574
sg13
Nsba(ibuftoken
BufToken
p6575
(dp6576
g5
I12
sg6
S'deal'
p6577
sg8
S'O'
sg9
S'NN'
p6578
sg11
S'deal'
p6579
sg13
Nsba(ibuftoken
BufToken
p6580
(dp6581
g5
I13
sg6
S'of'
p6582
sg8
S'O'
sg9
S'IN'
p6583
sg11
S'of'
p6584
sg13
Nsba(ibuftoken
BufToken
p6585
(dp6586
g5
I14
sg6
S'grass'
p6587
sg8
S'O'
sg9
S'NN'
p6588
sg11
S'grass'
p6589
sg13
Nsba(ibuftoken
BufToken
p6590
(dp6591
g5
I15
sg6
S'?'
sg8
S'O'
sg9
S'.'
sg11
S'?'
sg13
Nsba(ibuftoken
BufToken
p6592
(dp6593
g5
I16
sg6
S'\xe2\x80\x9d'
p6594
sg8
S'O'
sg9
S'SYM'
p6595
sg11
S'\xe2\x80\x9d'
p6596
sg13
Nsbaa(lp6597
(ibuftoken
BufToken
p6598
(dp6599
g5
I0
sg6
S'"'
sg8
S'O'
sg9
S'``'
p6600
sg11
S'"'
sg13
Nsba(ibuftoken
BufToken
p6601
(dp6602
g5
I1
sg6
S'Why'
p6603
sg8
S'O'
sg9
S'WRB'
p6604
sg11
S'why'
p6605
sg13
Nsba(ibuftoken
BufToken
p6606
(dp6607
g5
I2
sg6
S'?'
sg8
S'O'
sg9
S'.'
sg11
S'?'
sg13
Nsba(ibuftoken
BufToken
p6608
(dp6609
g5
I3
sg6
S'\xe2\x80\x9d'
p6610
sg8
S'O'
sg9
S'SYM'
p6611
sg11
S'\xe2\x80\x9d'
p6612
sg13
Nsbaa(lp6613
(ibuftoken
BufToken
p6614
(dp6615
g5
I0
sg6
S'"'
sg8
S'O'
sg9
S'``'
p6616
sg11
S'"'
sg13
Nsba(ibuftoken
BufToken
p6617
(dp6618
g5
I1
sg6
S'Because'
p6619
sg8
S'O'
sg9
S'IN'
p6620
sg11
S'because'
p6621
sg13
Nsba(ibuftoken
BufToken
p6622
(dp6623
g5
I2
sg6
S'where'
p6624
sg8
S'O'
sg9
S'WRB'
p6625
sg11
S'where'
p6626
sg13
Nsba(ibuftoken
BufToken
p6627
(dp6628
g5
I3
sg6
S'I'
sg8
S'O'
sg9
S'PRP'
p6629
sg11
S'I'
sg13
Nsba(ibuftoken
BufToken
p6630
(dp6631
g5
I4
sg6
S'live'
p6632
sg8
S'O'
sg9
S'VBP'
p6633
sg11
S'live'
p6634
sg13
Nsba(ibuftoken
BufToken
p6635
(dp6636
g5
I5
sg6
S'everything'
p6637
sg8
S'O'
sg9
S'NN'
p6638
sg11
S'everything'
p6639
sg13
Nsba(ibuftoken
BufToken
p6640
(dp6641
g5
I6
sg6
S'is'
p6642
sg8
S'O'
sg9
S'VBZ'
p6643
sg11
S'be'
p6644
sg13
Nsba(ibuftoken
BufToken
p6645
(dp6646
g5
I7
sg6
S'very'
p6647
sg8
S'O'
sg9
S'RB'
p6648
sg11
S'very'
p6649
sg13
Nsba(ibuftoken
BufToken
p6650
(dp6651
g5
I8
sg6
S'small'
p6652
sg8
S'O'
sg9
S'JJ'
p6653
sg11
S'small'
p6654
sg13
Nsba(ibuftoken
BufToken
p6655
(dp6656
g5
I9
sg6
S'...'
p6657
sg8
S'O'
sg9
S':'
sg11
S'...'
p6658
sg13
Nsba(ibuftoken
BufToken
p6659
(dp6660
g5
I10
sg6
S'\xe2\x80\x9d'
p6661
sg8
S'O'
sg9
S'SYM'
p6662
sg11
S'\xe2\x80\x9d'
p6663
sg13
Nsbaa(lp6664
(ibuftoken
BufToken
p6665
(dp6666
g5
I0
sg6
S'"'
sg8
S'O'
sg9
S'``'
p6667
sg11
S'"'
sg13
Nsba(ibuftoken
BufToken
p6668
(dp6669
g5
I1
sg6
S'There'
p6670
sg8
S'O'
sg9
S'EX'
p6671
sg11
S'there'
p6672
sg13
Nsba(ibuftoken
BufToken
p6673
(dp6674
g5
I2
sg6
S'will'
p6675
sg8
S'O'
sg9
S'MD'
p6676
sg11
S'will'
p6677
sg13
Nsba(ibuftoken
BufToken
p6678
(dp6679
g5
I3
sg6
S'surely'
p6680
sg8
S'O'
sg9
S'RB'
p6681
sg11
S'surely'
p6682
sg13
Nsba(ibuftoken
BufToken
p6683
(dp6684
g5
I4
sg6
S'be'
p6685
sg8
S'O'
sg9
S'VB'
p6686
sg11
S'be'
p6687
sg13
Nsba(ibuftoken
BufToken
p6688
(dp6689
g5
I5
sg6
S'enough'
p6690
sg8
S'O'
sg9
S'JJ'
p6691
sg11
S'enough'
p6692
sg13
Nsba(ibuftoken
BufToken
p6693
(dp6694
g5
I6
sg6
S'grass'
p6695
sg8
S'O'
sg9
S'NN'
p6696
sg11
S'grass'
p6697
sg13
Nsba(ibuftoken
BufToken
p6698
(dp6699
g5
I7
sg6
S'for'
p6700
sg8
S'O'
sg9
S'IN'
p6701
sg11
S'for'
p6702
sg13
Nsba(ibuftoken
BufToken
p6703
(dp6704
g5
I8
sg6
S'him'
p6705
sg8
S'O'
sg9
S'PRP'
p6706
sg11
S'he'
p6707
sg13
Nsba(ibuftoken
BufToken
p6708
(dp6709
g5
I9
sg6
S','
sg8
S'O'
sg9
S','
sg11
S','
sg13
Nsba(ibuftoken
BufToken
p6710
(dp6711
g5
I10
sg6
S'\xe2\x80\x9d'
p6712
sg8
S'O'
sg9
S'IN'
p6713
sg11
S'\xe2\x80\x9d'
p6714
sg13
Nsbaa(lp6715
(ibuftoken
BufToken
p6716
(dp6717
g5
I0
sg6
S'I'
sg8
S'O'
sg9
S'PRP'
p6718
sg11
S'I'
sg13
Nsba(ibuftoken
BufToken
p6719
(dp6720
g5
I1
sg6
S'said'
p6721
sg8
S'O'
sg9
S'VBD'
p6722
sg11
S'say'
p6723
sg13
Nsba(ibuftoken
BufToken
p6724
(dp6725
g5
I2
sg6
S'.'
sg8
S'O'
sg9
S'.'
sg11
S'.'
sg13
Nsbaa(lp6726
(ibuftoken
BufToken
p6727
(dp6728
g5
I0
sg6
S'"'
sg8
S'O'
sg9
S'``'
p6729
sg11
S'"'
sg13
Nsba(ibuftoken
BufToken
p6730
(dp6731
g5
I1
sg6
S'It'
p6732
sg8
S'O'
sg9
S'PRP'
p6733
sg11
S'it'
p6734
sg13
Nsba(ibuftoken
BufToken
p6735
(dp6736
g5
I2
sg6
S'is'
p6737
sg8
S'O'
sg9
S'VBZ'
p6738
sg11
S'be'
p6739
sg13
Nsba(ibuftoken
BufToken
p6740
(dp6741
g5
I3
sg6
S'a'
sg8
S'O'
sg9
S'DT'
p6742
sg11
S'a'
sg13
Nsba(ibuftoken
BufToken
p6743
(dp6744
g5
I4
sg6
S'very'
p6745
sg8
S'O'
sg9
S'RB'
p6746
sg11
S'very'
p6747
sg13
Nsba(ibuftoken
BufToken
p6748
(dp6749
g5
I5
sg6
S'small'
p6750
sg8
S'O'
sg9
S'JJ'
p6751
sg11
S'small'
p6752
sg13
Nsba(ibuftoken
BufToken
p6753
(dp6754
g5
I6
sg6
S'sheep'
p6755
sg8
S'O'
sg9
S'NN'
p6756
sg11
S'sheep'
p6757
sg13
Nsba(ibuftoken
BufToken
p6758
(dp6759
g5
I7
sg6
S'that'
p6760
sg8
S'O'
sg9
S'IN'
p6761
sg11
S'that'
p6762
sg13
Nsba(ibuftoken
BufToken
p6763
(dp6764
g5
I8
sg6
S'I'
sg8
S'O'
sg9
S'PRP'
p6765
sg11
S'I'
sg13
Nsba(ibuftoken
BufToken
p6766
(dp6767
g5
I9
sg6
S'have'
p6768
sg8
S'O'
sg9
S'VBP'
p6769
sg11
S'have'
p6770
sg13
Nsba(ibuftoken
BufToken
p6771
(dp6772
g5
I10
sg6
S'given'
p6773
sg8
S'O'
sg9
S'VBN'
p6774
sg11
S'give'
p6775
sg13
Nsba(ibuftoken
BufToken
p6776
(dp6777
g5
I11
sg6
S'you'
p6778
sg8
S'O'
sg9
S'PRP'
p6779
sg11
S'you'
p6780
sg13
Nsba(ibuftoken
BufToken
p6781
(dp6782
g5
I12
sg6
S'.'
sg8
S'O'
sg9
S'.'
sg11
S'.'
sg13
Nsba(ibuftoken
BufToken
p6783
(dp6784
g5
I13
sg6
S'\xe2\x80\x9d'
p6785
sg8
S'O'
sg9
S'SYM'
p6786
sg11
S'\xe2\x80\x9d'
p6787
sg13
Nsbaa(lp6788
(ibuftoken
BufToken
p6789
(dp6790
g5
I0
sg6
S'He'
p6791
sg8
S'O'
sg9
S'PRP'
p6792
sg11
S'he'
p6793
sg13
Nsba(ibuftoken
BufToken
p6794
(dp6795
g5
I1
sg6
S'bent'
p6796
sg8
S'O'
sg9
S'JJ'
p6797
sg11
S'bent'
p6798
sg13
Nsba(ibuftoken
BufToken
p6799
(dp6800
g5
I2
sg6
S'his'
p6801
sg8
S'O'
sg9
S'PRP$'
p6802
sg11
S'he'
p6803
sg13
Nsba(ibuftoken
BufToken
p6804
(dp6805
g5
I3
sg6
S'head'
p6806
sg8
S'O'
sg9
S'NN'
p6807
sg11
S'head'
p6808
sg13
Nsba(ibuftoken
BufToken
p6809
(dp6810
g5
I4
sg6
S'over'
p6811
sg8
S'O'
sg9
S'IN'
p6812
sg11
S'over'
p6813
sg13
Nsba(ibuftoken
BufToken
p6814
(dp6815
g5
I5
sg6
S'the'
p6816
sg8
S'O'
sg9
S'DT'
p6817
sg11
S'the'
p6818
sg13
Nsba(ibuftoken
BufToken
p6819
(dp6820
g5
I6
sg6
S'drawing'
p6821
sg8
S'O'
sg9
S'NN'
p6822
sg11
S'drawing'
p6823
sg13
Nsba(ibuftoken
BufToken
p6824
(dp6825
g5
I7
sg6
S':'
sg8
S'O'
sg9
S':'
sg11
S':'
sg13
Nsba(ibuftoken
BufToken
p6826
(dp6827
g5
I8
sg6
S'"'
sg8
S'O'
sg9
S'``'
p6828
sg11
S'"'
sg13
Nsba(ibuftoken
BufToken
p6829
(dp6830
g5
I9
sg6
S'Not'
p6831
sg8
S'O'
sg9
S'RB'
p6832
sg11
S'not'
p6833
sg13
Nsba(ibuftoken
BufToken
p6834
(dp6835
g5
I10
sg6
S'so'
p6836
sg8
S'O'
sg9
S'RB'
p6837
sg11
S'so'
p6838
sg13
Nsba(ibuftoken
BufToken
p6839
(dp6840
g5
I11
sg6
S'small'
p6841
sg8
S'O'
sg9
S'JJ'
p6842
sg11
S'small'
p6843
sg13
Nsba(ibuftoken
BufToken
p6844
(dp6845
g5
I12
sg6
S'that'
p6846
sg8
S'O'
sg9
S'DT'
p6847
sg11
S'that'
p6848
sg13
Nsba(ibuftoken
BufToken
p6849
(dp6850
g5
I13
sg6
S'--'
p6851
sg8
S'O'
sg9
S':'
sg11
S'--'
p6852
sg13
Nsba(ibuftoken
BufToken
p6853
(dp6854
g5
I14
sg6
S'Look'
p6855
sg8
S'O'
sg9
S'VB'
p6856
sg11
S'look'
p6857
sg13
Nsba(ibuftoken
BufToken
p6858
(dp6859
g5
I15
sg6
S'!'
sg8
S'O'
sg9
S'.'
sg11
S'!'
sg13
Nsbaa.